Component: ARM Compiler 5.06 update 1 (build 61) Tool: armlink [4d35a8]

==============================================================================

Section Cross References

    main.o(i.InitConsole) refers to sysctl.o(i.SysCtlPeripheralEnable) for SysCtlPeripheralEnable
    main.o(i.InitConsole) refers to gpio.o(i.GPIOPinConfigure) for GPIOPinConfigure
    main.o(i.InitConsole) refers to uart.o(i.UARTClockSourceSet) for UARTClockSourceSet
    main.o(i.InitConsole) refers to gpio.o(i.GPIOPinTypeUART) for GPIOPinTypeUART
    main.o(i.InitConsole) refers to uartstdio.o(i.UARTStdioConfig) for UARTStdioConfig
    main.o(i.main) refers to main.o(i.InitConsole) for InitConsole
    main.o(i.main) refers to sensorinit.o(i.initSensors) for initSensors
    sensorinit.o(i.I2CMIntHandler_wrapper) refers to i2cm_drv.o(i.I2CMIntHandler) for I2CMIntHandler
    sensorinit.o(i.I2CMIntHandler_wrapper) refers to sensorinit.o(.bss) for masterDriver
    sensorinit.o(i.InitI2C0) refers to sysctl.o(i.SysCtlPeripheralEnable) for SysCtlPeripheralEnable
    sensorinit.o(i.InitI2C0) refers to sysctl.o(i.SysCtlPeripheralReset) for SysCtlPeripheralReset
    sensorinit.o(i.InitI2C0) refers to gpio.o(i.GPIOPinConfigure) for GPIOPinConfigure
    sensorinit.o(i.InitI2C0) refers to gpio.o(i.GPIOPinTypeI2CSCL) for GPIOPinTypeI2CSCL
    sensorinit.o(i.InitI2C0) refers to gpio.o(i.GPIOPinTypeI2C) for GPIOPinTypeI2C
    sensorinit.o(i.InitI2C0) refers to sysctl.o(i.SysCtlClockGet) for SysCtlClockGet
    sensorinit.o(i.InitI2C0) refers to i2c.o(i.I2CMasterInitExpClk) for I2CMasterInitExpClk
    sensorinit.o(i.accelerometerCallback) refers to uartstdio.o(i.UARTprintf) for UARTprintf
    sensorinit.o(i.accelerometerCallback) refers to sensorinit.o(.data) for g_bLSM303DLHCAccelDone
    sensorinit.o(i.initSensors) refers to sensorinit.o(i.InitI2C0) for InitI2C0
    sensorinit.o(i.initSensors) refers to i2c.o(i.I2CIntRegister) for I2CIntRegister
    sensorinit.o(i.initSensors) refers to sysctl.o(i.SysCtlClockGet) for SysCtlClockGet
    sensorinit.o(i.initSensors) refers to i2cm_drv.o(i.I2CMInit) for I2CMInit
    sensorinit.o(i.initSensors) refers to uartstdio.o(i.UARTprintf) for UARTprintf
    sensorinit.o(i.initSensors) refers to lsm303dlhc_accel.o(i.LSM303DLHCAccelInit) for LSM303DLHCAccelInit
    sensorinit.o(i.initSensors) refers to lsm303dlhc_accel.o(i.LSM303DLHCAccelReadModifyWrite) for LSM303DLHCAccelReadModifyWrite
    sensorinit.o(i.initSensors) refers to lsm303dlhc_accel.o(i.LSM303DLHCAccelDataRead) for LSM303DLHCAccelDataRead
    sensorinit.o(i.initSensors) refers to lsm303dlhc_accel.o(i.LSM303DLHCAccelDataAccelGetFloat) for LSM303DLHCAccelDataAccelGetFloat
    sensorinit.o(i.initSensors) refers to f2d.o(x$fpl$f2d) for __aeabi_f2d
    sensorinit.o(i.initSensors) refers to delays.o(i.cycles) for cycles
    sensorinit.o(i.initSensors) refers to sensorinit.o(i.I2CMIntHandler_wrapper) for I2CMIntHandler_wrapper
    sensorinit.o(i.initSensors) refers to sensorinit.o(.bss) for masterDriver
    sensorinit.o(i.initSensors) refers to sensorinit.o(.data) for g_bLSM303DLHCAccelDone
    sensorinit.o(i.initSensors) refers to sensorinit.o(i.accelerometerCallback) for accelerometerCallback
    uartstdio.o(i.UARTStdioConfig) refers to uartstdio.o(.constdata) for g_ulUARTPeriph
    uartstdio.o(i.UARTStdioConfig) refers to uartstdio.o(.data) for g_ulBase
    uartstdio.o(i.UARTStdioInit) refers to uartstdio.o(i.UARTStdioConfig) for UARTStdioConfig
    uartstdio.o(i.UARTStdioInitExpClk) refers to uartstdio.o(i.UARTStdioConfig) for UARTStdioConfig
    uartstdio.o(i.UARTgetc) refers to uartstdio.o(.data) for g_ulBase
    uartstdio.o(i.UARTgets) refers to uartstdio.o(i.UARTwrite) for UARTwrite
    uartstdio.o(i.UARTgets) refers to uartstdio.o(.data) for g_ulBase
    uartstdio.o(i.UARTprintf) refers to vsnprintf.o(.text) for vsnprintf
    uartstdio.o(i.UARTprintf) refers to uartstdio.o(i.UARTwrite) for UARTwrite
    uartstdio.o(i.UARTprintf) refers to uartstdio.o(.bss) for buf
    uartstdio.o(i.UARTwrite) refers to uartstdio.o(.data) for g_ulBase
    adc.o(i.ADCIntRegister) refers to adc.o(i._ADCIntNumberGet) for _ADCIntNumberGet
    adc.o(i.ADCIntRegister) refers to interrupt.o(i.IntRegister) for IntRegister
    adc.o(i.ADCIntRegister) refers to interrupt.o(i.IntEnable) for IntEnable
    adc.o(i.ADCIntUnregister) refers to adc.o(i._ADCIntNumberGet) for _ADCIntNumberGet
    adc.o(i.ADCIntUnregister) refers to interrupt.o(i.IntDisable) for IntDisable
    adc.o(i.ADCIntUnregister) refers to interrupt.o(i.IntUnregister) for IntUnregister
    adc.o(i.ADCSoftwareOversampleConfigure) refers to adc.o(.data) for g_pui8OversampleFactor
    adc.o(i.ADCSoftwareOversampleDataGet) refers to adc.o(.data) for g_pui8OversampleFactor
    adc.o(i.ADCSoftwareOversampleStepConfigure) refers to adc.o(.data) for g_pui8OversampleFactor
    aes.o(i.AESDataAuth) refers to aes.o(i.AESLengthSet) for AESLengthSet
    aes.o(i.AESDataAuth) refers to aes.o(i.AESDataWrite) for AESDataWrite
    aes.o(i.AESDataAuth) refers to aes.o(i.AESTagRead) for AESTagRead
    aes.o(i.AESDataProcess) refers to aes.o(i.AESLengthSet) for AESLengthSet
    aes.o(i.AESDataProcess) refers to aes.o(i.AESDataWrite) for AESDataWrite
    aes.o(i.AESDataProcess) refers to aes.o(i.AESDataRead) for AESDataRead
    aes.o(i.AESDataProcessAuth) refers to aes.o(i.AESLengthSet) for AESLengthSet
    aes.o(i.AESDataProcessAuth) refers to aes.o(i.AESAuthLengthSet) for AESAuthLengthSet
    aes.o(i.AESDataProcessAuth) refers to aes.o(i.AESDataWrite) for AESDataWrite
    aes.o(i.AESDataProcessAuth) refers to aes.o(i.AESDataRead) for AESDataRead
    aes.o(i.AESDataProcessAuth) refers to aes.o(i.AESTagRead) for AESTagRead
    aes.o(i.AESIntRegister) refers to interrupt.o(i.IntRegister) for IntRegister
    aes.o(i.AESIntRegister) refers to interrupt.o(i.IntEnable) for IntEnable
    aes.o(i.AESIntUnregister) refers to interrupt.o(i.IntDisable) for IntDisable
    aes.o(i.AESIntUnregister) refers to interrupt.o(i.IntUnregister) for IntUnregister
    can.o(i.CANBitRateSet) refers to can.o(.constdata) for g_ui16CANBitValues
    can.o(i.CANIntRegister) refers to can.o(i._CANIntNumberGet) for _CANIntNumberGet
    can.o(i.CANIntRegister) refers to interrupt.o(i.IntRegister) for IntRegister
    can.o(i.CANIntRegister) refers to interrupt.o(i.IntEnable) for IntEnable
    can.o(i.CANIntUnregister) refers to can.o(i._CANIntNumberGet) for _CANIntNumberGet
    can.o(i.CANIntUnregister) refers to interrupt.o(i.IntDisable) for IntDisable
    can.o(i.CANIntUnregister) refers to interrupt.o(i.IntUnregister) for IntUnregister
    can.o(i.CANMessageGet) refers to can.o(i._CANDataRegRead) for _CANDataRegRead
    can.o(i.CANMessageSet) refers to can.o(i._CANDataRegWrite) for _CANDataRegWrite
    comp.o(i.ComparatorIntRegister) refers to interrupt.o(i.IntRegister) for IntRegister
    comp.o(i.ComparatorIntRegister) refers to interrupt.o(i.IntEnable) for IntEnable
    comp.o(i.ComparatorIntUnregister) refers to interrupt.o(i.IntDisable) for IntDisable
    comp.o(i.ComparatorIntUnregister) refers to interrupt.o(i.IntUnregister) for IntUnregister
    crc.o(i.CRCDataProcess) refers to crc.o(i.CRCResultRead) for CRCResultRead
    des.o(i.DESDataProcess) refers to des.o(i.DESDataWriteNonBlocking) for DESDataWriteNonBlocking
    des.o(i.DESDataProcess) refers to des.o(i.DESDataReadNonBlocking) for DESDataReadNonBlocking
    des.o(i.DESIntRegister) refers to interrupt.o(i.IntRegister) for IntRegister
    des.o(i.DESIntRegister) refers to interrupt.o(i.IntEnable) for IntEnable
    des.o(i.DESIntUnregister) refers to interrupt.o(i.IntDisable) for IntDisable
    des.o(i.DESIntUnregister) refers to interrupt.o(i.IntUnregister) for IntUnregister
    eeprom.o(i.EEPROMInit) refers to sysctl.o(.emb_text) for SysCtlDelay
    eeprom.o(i.EEPROMInit) refers to eeprom.o(i._EEPROMWaitForDone) for _EEPROMWaitForDone
    eeprom.o(i.EEPROMInit) refers to sysctl.o(i.SysCtlPeripheralReset) for SysCtlPeripheralReset
    eeprom.o(i.EEPROMIntClear) refers to eeprom.o(i._EEPROMSectorMaskClear) for _EEPROMSectorMaskClear
    eeprom.o(i.EEPROMMassErase) refers to eeprom.o(i._EEPROMSectorMaskClear) for _EEPROMSectorMaskClear
    eeprom.o(i.EEPROMMassErase) refers to eeprom.o(i._EEPROMWaitForDone) for _EEPROMWaitForDone
    eeprom.o(i.EEPROMMassErase) refers to sysctl.o(i.SysCtlPeripheralReset) for SysCtlPeripheralReset
    eeprom.o(i.EEPROMMassErase) refers to sysctl.o(.emb_text) for SysCtlDelay
    eeprom.o(i.EEPROMProgram) refers to eeprom.o(i._EEPROMSectorMaskSet) for _EEPROMSectorMaskSet
    eeprom.o(i.EEPROMProgram) refers to sysctl.o(.emb_text) for SysCtlDelay
    eeprom.o(i.EEPROMProgram) refers to eeprom.o(i._EEPROMSectorMaskClear) for _EEPROMSectorMaskClear
    eeprom.o(i.EEPROMProgramNonBlocking) refers to eeprom.o(i._EEPROMSectorMaskSet) for _EEPROMSectorMaskSet
    eeprom.o(i._EEPROMSectorMaskClear) refers to sysctl.o(.emb_text) for SysCtlDelay
    eeprom.o(i._EEPROMSectorMaskSet) refers to sysctl.o(.emb_text) for SysCtlDelay
    emac.o(i.EMACHashFilterBitCalculate) refers to sw_crc.o(i.Crc32) for Crc32
    emac.o(i.EMACInit) refers to emac.o(.constdata) for g_pi16MIIClockDiv
    emac.o(i.EMACIntRegister) refers to interrupt.o(i.IntRegister) for IntRegister
    emac.o(i.EMACIntRegister) refers to interrupt.o(i.IntEnable) for IntEnable
    emac.o(i.EMACIntUnregister) refers to interrupt.o(i.IntDisable) for IntDisable
    emac.o(i.EMACIntUnregister) refers to interrupt.o(i.IntUnregister) for IntUnregister
    emac.o(i.EMACPHYConfigSet) refers to sysctl.o(i.SysCtlPeripheralReset) for SysCtlPeripheralReset
    emac.o(i.EMACPHYConfigSet) refers to sysctl.o(i.SysCtlPeripheralReady) for SysCtlPeripheralReady
    emac.o(i.EMACPHYConfigSet) refers to sysctl.o(.emb_text) for SysCtlDelay
    emac.o(i.EMACPHYConfigSet) refers to emac.o(i.EMACReset) for EMACReset
    emac.o(i.EMACPHYExtendedRead) refers to emac.o(i.EMACPHYWrite) for EMACPHYWrite
    emac.o(i.EMACPHYExtendedRead) refers to emac.o(i.EMACPHYRead) for EMACPHYRead
    emac.o(i.EMACPHYExtendedWrite) refers to emac.o(i.EMACPHYWrite) for EMACPHYWrite
    emac.o(i.EMACPHYPowerOff) refers to emac.o(i.EMACPHYRead) for EMACPHYRead
    emac.o(i.EMACPHYPowerOff) refers to emac.o(i.EMACPHYWrite) for EMACPHYWrite
    emac.o(i.EMACPHYPowerOn) refers to emac.o(i.EMACPHYRead) for EMACPHYRead
    emac.o(i.EMACPHYPowerOn) refers to emac.o(i.EMACPHYWrite) for EMACPHYWrite
    emac.o(i.EMACVLANHashFilterBitCalculate) refers to sw_crc.o(i.Crc32) for Crc32
    epi.o(i.EPIIntRegister) refers to epi.o(i._EPIIntNumberGet) for _EPIIntNumberGet
    epi.o(i.EPIIntRegister) refers to interrupt.o(i.IntRegister) for IntRegister
    epi.o(i.EPIIntRegister) refers to interrupt.o(i.IntEnable) for IntEnable
    epi.o(i.EPIIntUnregister) refers to epi.o(i._EPIIntNumberGet) for _EPIIntNumberGet
    epi.o(i.EPIIntUnregister) refers to interrupt.o(i.IntDisable) for IntDisable
    epi.o(i.EPIIntUnregister) refers to interrupt.o(i.IntUnregister) for IntUnregister
    flash.o(i.FlashIntRegister) refers to interrupt.o(i.IntRegister) for IntRegister
    flash.o(i.FlashIntRegister) refers to interrupt.o(i.IntEnable) for IntEnable
    flash.o(i.FlashIntUnregister) refers to interrupt.o(i.IntDisable) for IntDisable
    flash.o(i.FlashIntUnregister) refers to interrupt.o(i.IntUnregister) for IntUnregister
    flash.o(i.FlashProtectGet) refers to flash.o(.constdata) for g_pui32FMPRERegs
    flash.o(i.FlashProtectSet) refers to flash.o(.constdata) for g_pui32FMPRERegs
    gpio.o(i.GPIOIntRegister) refers to gpio.o(i._GPIOIntNumberGet) for _GPIOIntNumberGet
    gpio.o(i.GPIOIntRegister) refers to interrupt.o(i.IntRegister) for IntRegister
    gpio.o(i.GPIOIntRegister) refers to interrupt.o(i.IntEnable) for IntEnable
    gpio.o(i.GPIOIntUnregister) refers to gpio.o(i._GPIOIntNumberGet) for _GPIOIntNumberGet
    gpio.o(i.GPIOIntUnregister) refers to interrupt.o(i.IntDisable) for IntDisable
    gpio.o(i.GPIOIntUnregister) refers to interrupt.o(i.IntUnregister) for IntUnregister
    gpio.o(i.GPIOPinConfigure) refers to gpio.o(.constdata) for g_pui32GPIOBaseAddrs
    gpio.o(i.GPIOPinTypeADC) refers to gpio.o(i.GPIODirModeSet) for GPIODirModeSet
    gpio.o(i.GPIOPinTypeADC) refers to gpio.o(i.GPIOPadConfigSet) for GPIOPadConfigSet
    gpio.o(i.GPIOPinTypeCAN) refers to gpio.o(i.GPIODirModeSet) for GPIODirModeSet
    gpio.o(i.GPIOPinTypeCAN) refers to gpio.o(i.GPIOPadConfigSet) for GPIOPadConfigSet
    gpio.o(i.GPIOPinTypeCIR) refers to gpio.o(i.GPIODirModeSet) for GPIODirModeSet
    gpio.o(i.GPIOPinTypeCIR) refers to gpio.o(i.GPIOPadConfigSet) for GPIOPadConfigSet
    gpio.o(i.GPIOPinTypeComparator) refers to gpio.o(i.GPIODirModeSet) for GPIODirModeSet
    gpio.o(i.GPIOPinTypeComparator) refers to gpio.o(i.GPIOPadConfigSet) for GPIOPadConfigSet
    gpio.o(i.GPIOPinTypeComparatorOutput) refers to gpio.o(i.GPIODirModeSet) for GPIODirModeSet
    gpio.o(i.GPIOPinTypeComparatorOutput) refers to gpio.o(i.GPIOPadConfigSet) for GPIOPadConfigSet
    gpio.o(i.GPIOPinTypeEPI) refers to gpio.o(i.GPIODirModeSet) for GPIODirModeSet
    gpio.o(i.GPIOPinTypeEPI) refers to gpio.o(i.GPIOPadConfigSet) for GPIOPadConfigSet
    gpio.o(i.GPIOPinTypeEthernetLED) refers to gpio.o(i.GPIODirModeSet) for GPIODirModeSet
    gpio.o(i.GPIOPinTypeEthernetLED) refers to gpio.o(i.GPIOPadConfigSet) for GPIOPadConfigSet
    gpio.o(i.GPIOPinTypeEthernetMII) refers to gpio.o(i.GPIODirModeSet) for GPIODirModeSet
    gpio.o(i.GPIOPinTypeEthernetMII) refers to gpio.o(i.GPIOPadConfigSet) for GPIOPadConfigSet
    gpio.o(i.GPIOPinTypeGPIOInput) refers to gpio.o(i.GPIODirModeSet) for GPIODirModeSet
    gpio.o(i.GPIOPinTypeGPIOInput) refers to gpio.o(i.GPIOPadConfigSet) for GPIOPadConfigSet
    gpio.o(i.GPIOPinTypeGPIOOutput) refers to gpio.o(i.GPIOPadConfigSet) for GPIOPadConfigSet
    gpio.o(i.GPIOPinTypeGPIOOutput) refers to gpio.o(i.GPIODirModeSet) for GPIODirModeSet
    gpio.o(i.GPIOPinTypeGPIOOutputOD) refers to gpio.o(i.GPIOPadConfigSet) for GPIOPadConfigSet
    gpio.o(i.GPIOPinTypeGPIOOutputOD) refers to gpio.o(i.GPIODirModeSet) for GPIODirModeSet
    gpio.o(i.GPIOPinTypeI2C) refers to gpio.o(i.GPIODirModeSet) for GPIODirModeSet
    gpio.o(i.GPIOPinTypeI2C) refers to gpio.o(i.GPIOPadConfigSet) for GPIOPadConfigSet
    gpio.o(i.GPIOPinTypeI2CSCL) refers to gpio.o(i.GPIODirModeSet) for GPIODirModeSet
    gpio.o(i.GPIOPinTypeI2CSCL) refers to gpio.o(i.GPIOPadConfigSet) for GPIOPadConfigSet
    gpio.o(i.GPIOPinTypeKBColumn) refers to gpio.o(i.GPIODirModeSet) for GPIODirModeSet
    gpio.o(i.GPIOPinTypeKBColumn) refers to gpio.o(i.GPIOPadConfigSet) for GPIOPadConfigSet
    gpio.o(i.GPIOPinTypeKBRow) refers to gpio.o(i.GPIODirModeSet) for GPIODirModeSet
    gpio.o(i.GPIOPinTypeKBRow) refers to gpio.o(i.GPIOPadConfigSet) for GPIOPadConfigSet
    gpio.o(i.GPIOPinTypeLCD) refers to gpio.o(i.GPIODirModeSet) for GPIODirModeSet
    gpio.o(i.GPIOPinTypeLCD) refers to gpio.o(i.GPIOPadConfigSet) for GPIOPadConfigSet
    gpio.o(i.GPIOPinTypeLEDSeq) refers to gpio.o(i.GPIODirModeSet) for GPIODirModeSet
    gpio.o(i.GPIOPinTypeLEDSeq) refers to gpio.o(i.GPIOPadConfigSet) for GPIOPadConfigSet
    gpio.o(i.GPIOPinTypeLPC) refers to gpio.o(i.GPIODirModeSet) for GPIODirModeSet
    gpio.o(i.GPIOPinTypeLPC) refers to gpio.o(i.GPIOPadConfigSet) for GPIOPadConfigSet
    gpio.o(i.GPIOPinTypePECIRx) refers to gpio.o(i.GPIODirModeSet) for GPIODirModeSet
    gpio.o(i.GPIOPinTypePECIRx) refers to gpio.o(i.GPIOPadConfigSet) for GPIOPadConfigSet
    gpio.o(i.GPIOPinTypePECITx) refers to gpio.o(i.GPIODirModeSet) for GPIODirModeSet
    gpio.o(i.GPIOPinTypePECITx) refers to gpio.o(i.GPIOPadConfigSet) for GPIOPadConfigSet
    gpio.o(i.GPIOPinTypePWM) refers to gpio.o(i.GPIODirModeSet) for GPIODirModeSet
    gpio.o(i.GPIOPinTypePWM) refers to gpio.o(i.GPIOPadConfigSet) for GPIOPadConfigSet
    gpio.o(i.GPIOPinTypeQEI) refers to gpio.o(i.GPIODirModeSet) for GPIODirModeSet
    gpio.o(i.GPIOPinTypeQEI) refers to gpio.o(i.GPIOPadConfigSet) for GPIOPadConfigSet
    gpio.o(i.GPIOPinTypeSSI) refers to gpio.o(i.GPIODirModeSet) for GPIODirModeSet
    gpio.o(i.GPIOPinTypeSSI) refers to gpio.o(i.GPIOPadConfigSet) for GPIOPadConfigSet
    gpio.o(i.GPIOPinTypeTimer) refers to gpio.o(i.GPIODirModeSet) for GPIODirModeSet
    gpio.o(i.GPIOPinTypeTimer) refers to gpio.o(i.GPIOPadConfigSet) for GPIOPadConfigSet
    gpio.o(i.GPIOPinTypeUART) refers to gpio.o(i.GPIODirModeSet) for GPIODirModeSet
    gpio.o(i.GPIOPinTypeUART) refers to gpio.o(i.GPIOPadConfigSet) for GPIOPadConfigSet
    gpio.o(i.GPIOPinTypeUSBAnalog) refers to gpio.o(i.GPIODirModeSet) for GPIODirModeSet
    gpio.o(i.GPIOPinTypeUSBAnalog) refers to gpio.o(i.GPIOPadConfigSet) for GPIOPadConfigSet
    gpio.o(i.GPIOPinTypeUSBDigital) refers to gpio.o(i.GPIODirModeSet) for GPIODirModeSet
    gpio.o(i.GPIOPinTypeUSBDigital) refers to gpio.o(i.GPIOPadConfigSet) for GPIOPadConfigSet
    gpio.o(i.GPIOPinTypeWakeHigh) refers to gpio.o(i.GPIODirModeSet) for GPIODirModeSet
    gpio.o(i.GPIOPinTypeWakeHigh) refers to gpio.o(i.GPIOPadConfigSet) for GPIOPadConfigSet
    gpio.o(i.GPIOPinTypeWakeLow) refers to gpio.o(i.GPIODirModeSet) for GPIODirModeSet
    gpio.o(i.GPIOPinTypeWakeLow) refers to gpio.o(i.GPIOPadConfigSet) for GPIOPadConfigSet
    gpio.o(i._GPIOIntNumberGet) refers to gpio.o(.constdata) for g_ppui32GPIOIntMapBlizzard
    hibernate.o(i.HibernateBatCheckStart) refers to hibernate.o(i._HibernateWriteComplete) for _HibernateWriteComplete
    hibernate.o(i.HibernateCalendarMatchSet) refers to hibernate.o(i._HibernateCalendarSet) for _HibernateCalendarSet
    hibernate.o(i.HibernateCalendarSet) refers to hibernate.o(i._HibernateCalendarSet) for _HibernateCalendarSet
    hibernate.o(i.HibernateClockConfig) refers to hibernate.o(i._HibernateWriteComplete) for _HibernateWriteComplete
    hibernate.o(i.HibernateCounterMode) refers to hibernate.o(i._HibernateWriteComplete) for _HibernateWriteComplete
    hibernate.o(i.HibernateDataSet) refers to hibernate.o(i._HibernateWriteComplete) for _HibernateWriteComplete
    hibernate.o(i.HibernateDisable) refers to hibernate.o(i._HibernateWriteComplete) for _HibernateWriteComplete
    hibernate.o(i.HibernateEnableExpClk) refers to hibernate.o(i._HibernateWriteComplete) for _HibernateWriteComplete
    hibernate.o(i.HibernateGPIORetentionDisable) refers to hibernate.o(i._HibernateWriteComplete) for _HibernateWriteComplete
    hibernate.o(i.HibernateGPIORetentionEnable) refers to hibernate.o(i._HibernateWriteComplete) for _HibernateWriteComplete
    hibernate.o(i.HibernateIntClear) refers to hibernate.o(i._HibernateWriteComplete) for _HibernateWriteComplete
    hibernate.o(i.HibernateIntDisable) refers to hibernate.o(i._HibernateWriteComplete) for _HibernateWriteComplete
    hibernate.o(i.HibernateIntEnable) refers to hibernate.o(i._HibernateWriteComplete) for _HibernateWriteComplete
    hibernate.o(i.HibernateIntRegister) refers to hibernate.o(i._HibernateIntNumberGet) for _HibernateIntNumberGet
    hibernate.o(i.HibernateIntRegister) refers to interrupt.o(i.IntRegister) for IntRegister
    hibernate.o(i.HibernateIntRegister) refers to interrupt.o(i.IntEnable) for IntEnable
    hibernate.o(i.HibernateIntUnregister) refers to hibernate.o(i._HibernateIntNumberGet) for _HibernateIntNumberGet
    hibernate.o(i.HibernateIntUnregister) refers to interrupt.o(i.IntDisable) for IntDisable
    hibernate.o(i.HibernateIntUnregister) refers to interrupt.o(i.IntUnregister) for IntUnregister
    hibernate.o(i.HibernateLowBatSet) refers to hibernate.o(i._HibernateWriteComplete) for _HibernateWriteComplete
    hibernate.o(i.HibernateRTCDisable) refers to hibernate.o(i._HibernateWriteComplete) for _HibernateWriteComplete
    hibernate.o(i.HibernateRTCEnable) refers to hibernate.o(i._HibernateWriteComplete) for _HibernateWriteComplete
    hibernate.o(i.HibernateRTCMatchSet) refers to hibernate.o(i._HibernateWriteComplete) for _HibernateWriteComplete
    hibernate.o(i.HibernateRTCSSMatchSet) refers to hibernate.o(i._HibernateWriteComplete) for _HibernateWriteComplete
    hibernate.o(i.HibernateRTCSet) refers to hibernate.o(i._HibernateWriteComplete) for _HibernateWriteComplete
    hibernate.o(i.HibernateRTCTrimSet) refers to hibernate.o(i._HibernateWriteComplete) for _HibernateWriteComplete
    hibernate.o(i.HibernateRequest) refers to hibernate.o(i._HibernateWriteComplete) for _HibernateWriteComplete
    hibernate.o(i.HibernateTamperDisable) refers to hibernate.o(i._HibernateWriteComplete) for _HibernateWriteComplete
    hibernate.o(i.HibernateTamperEnable) refers to hibernate.o(i._HibernateWriteComplete) for _HibernateWriteComplete
    hibernate.o(i.HibernateTamperEventsClear) refers to hibernate.o(i._HibernateWriteComplete) for _HibernateWriteComplete
    hibernate.o(i.HibernateTamperEventsClearNoLock) refers to hibernate.o(i._HibernateWriteComplete) for _HibernateWriteComplete
    hibernate.o(i.HibernateTamperEventsConfig) refers to hibernate.o(i._HibernateWriteComplete) for _HibernateWriteComplete
    hibernate.o(i.HibernateTamperExtOscRecover) refers to hibernate.o(i._HibernateWriteComplete) for _HibernateWriteComplete
    hibernate.o(i.HibernateTamperExtOscValid) refers to hibernate.o(i.HibernateTamperStatusGet) for HibernateTamperStatusGet
    hibernate.o(i.HibernateTamperIODisable) refers to hibernate.o(i._HibernateWriteComplete) for _HibernateWriteComplete
    hibernate.o(i.HibernateTamperIOEnable) refers to hibernate.o(i._HibernateWriteComplete) for _HibernateWriteComplete
    hibernate.o(i.HibernateTamperLock) refers to hibernate.o(i._HibernateWriteComplete) for _HibernateWriteComplete
    hibernate.o(i.HibernateTamperUnLock) refers to hibernate.o(i._HibernateWriteComplete) for _HibernateWriteComplete
    hibernate.o(i.HibernateWakeSet) refers to hibernate.o(i._HibernateWriteComplete) for _HibernateWriteComplete
    hibernate.o(i._HibernateCalendarSet) refers to hibernate.o(i._HibernateWriteComplete) for _HibernateWriteComplete
    i2c.o(i.I2CIntRegister) refers to i2c.o(i._I2CIntNumberGet) for _I2CIntNumberGet
    i2c.o(i.I2CIntRegister) refers to interrupt.o(i.IntRegister) for IntRegister
    i2c.o(i.I2CIntRegister) refers to interrupt.o(i.IntEnable) for IntEnable
    i2c.o(i.I2CIntUnregister) refers to i2c.o(i._I2CIntNumberGet) for _I2CIntNumberGet
    i2c.o(i.I2CIntUnregister) refers to interrupt.o(i.IntDisable) for IntDisable
    i2c.o(i.I2CIntUnregister) refers to interrupt.o(i.IntUnregister) for IntUnregister
    i2c.o(i.I2CMasterInitExpClk) refers to i2c.o(i.I2CMasterEnable) for I2CMasterEnable
    i2c.o(i.I2CSlaveInit) refers to i2c.o(i.I2CSlaveEnable) for I2CSlaveEnable
    i2c.o(i._I2CIntNumberGet) refers to i2c.o(.constdata) for g_ppui32I2CIntMap
    interrupt.o(i.IntDisable) refers to interrupt.o(.constdata) for g_pui32Dii16Regs
    interrupt.o(i.IntEnable) refers to interrupt.o(.constdata) for g_pui32EnRegs
    interrupt.o(i.IntIsEnabled) refers to interrupt.o(.constdata) for g_pui32EnRegs
    interrupt.o(i.IntMasterDisable) refers to cpu.o(.emb_text) for CPUcpsid
    interrupt.o(i.IntMasterEnable) refers to cpu.o(.emb_text) for CPUcpsie
    interrupt.o(i.IntPendClear) refers to interrupt.o(.constdata) for g_pui32UnpendRegs
    interrupt.o(i.IntPendSet) refers to interrupt.o(.constdata) for g_pui32PendRegs
    interrupt.o(i.IntPriorityGet) refers to interrupt.o(.constdata) for g_pui32Regs
    interrupt.o(i.IntPriorityGroupingGet) refers to interrupt.o(.constdata) for g_pui32Priority
    interrupt.o(i.IntPriorityGroupingSet) refers to interrupt.o(.constdata) for g_pui32Priority
    interrupt.o(i.IntPriorityMaskGet) refers to cpu.o(.emb_text) for CPUbasepriGet
    interrupt.o(i.IntPriorityMaskSet) refers to cpu.o(.emb_text) for CPUbasepriSet
    interrupt.o(i.IntPrioritySet) refers to interrupt.o(.constdata) for g_pui32Regs
    interrupt.o(i.IntRegister) refers to interrupt.o(vtable) for g_pfnRAMVectors
    interrupt.o(i.IntUnregister) refers to interrupt.o(i._IntDefaultHandler) for _IntDefaultHandler
    interrupt.o(i.IntUnregister) refers to interrupt.o(vtable) for g_pfnRAMVectors
    lcd.o(i.LCDClockReset) refers to sysctl.o(.emb_text) for SysCtlDelay
    lcd.o(i.LCDIntRegister) refers to interrupt.o(i.IntRegister) for IntRegister
    lcd.o(i.LCDIntRegister) refers to interrupt.o(i.IntEnable) for IntEnable
    lcd.o(i.LCDIntUnregister) refers to interrupt.o(i.IntDisable) for IntDisable
    lcd.o(i.LCDIntUnregister) refers to interrupt.o(i.IntUnregister) for IntUnregister
    lcd.o(i.LCDRasterEnable) refers to lcd.o(i.LCDClockReset) for LCDClockReset
    mpu.o(i.MPUIntRegister) refers to interrupt.o(i.IntRegister) for IntRegister
    mpu.o(i.MPUIntRegister) refers to interrupt.o(i.IntEnable) for IntEnable
    mpu.o(i.MPUIntUnregister) refers to interrupt.o(i.IntDisable) for IntDisable
    mpu.o(i.MPUIntUnregister) refers to interrupt.o(i.IntUnregister) for IntUnregister
    onewire.o(i.OneWireDMAEnable) refers to sysctl.o(.emb_text) for SysCtlDelay
    onewire.o(i.OneWireIntRegister) refers to onewire.o(i._OneWireIntNumberGet) for _OneWireIntNumberGet
    onewire.o(i.OneWireIntRegister) refers to interrupt.o(i.IntRegister) for IntRegister
    onewire.o(i.OneWireIntRegister) refers to interrupt.o(i.IntEnable) for IntEnable
    onewire.o(i.OneWireIntUnregister) refers to onewire.o(i._OneWireIntNumberGet) for _OneWireIntNumberGet
    onewire.o(i.OneWireIntUnregister) refers to interrupt.o(i.IntDisable) for IntDisable
    onewire.o(i.OneWireIntUnregister) refers to interrupt.o(i.IntUnregister) for IntUnregister
    pwm.o(i.PWMFaultIntRegister) refers to pwm.o(i._PWMFaultIntNumberGet) for _PWMFaultIntNumberGet
    pwm.o(i.PWMFaultIntRegister) refers to interrupt.o(i.IntRegister) for IntRegister
    pwm.o(i.PWMFaultIntRegister) refers to interrupt.o(i.IntEnable) for IntEnable
    pwm.o(i.PWMFaultIntUnregister) refers to pwm.o(i._PWMFaultIntNumberGet) for _PWMFaultIntNumberGet
    pwm.o(i.PWMFaultIntUnregister) refers to interrupt.o(i.IntDisable) for IntDisable
    pwm.o(i.PWMFaultIntUnregister) refers to interrupt.o(i.IntUnregister) for IntUnregister
    pwm.o(i.PWMGenIntRegister) refers to pwm.o(i._PWMGenIntNumberGet) for _PWMGenIntNumberGet
    pwm.o(i.PWMGenIntRegister) refers to interrupt.o(i.IntRegister) for IntRegister
    pwm.o(i.PWMGenIntRegister) refers to interrupt.o(i.IntEnable) for IntEnable
    pwm.o(i.PWMGenIntUnregister) refers to pwm.o(i._PWMGenIntNumberGet) for _PWMGenIntNumberGet
    pwm.o(i.PWMGenIntUnregister) refers to interrupt.o(i.IntDisable) for IntDisable
    pwm.o(i.PWMGenIntUnregister) refers to interrupt.o(i.IntUnregister) for IntUnregister
    qei.o(i.QEIIntRegister) refers to qei.o(i._QEIIntNumberGet) for _QEIIntNumberGet
    qei.o(i.QEIIntRegister) refers to interrupt.o(i.IntRegister) for IntRegister
    qei.o(i.QEIIntRegister) refers to interrupt.o(i.IntEnable) for IntEnable
    qei.o(i.QEIIntUnregister) refers to qei.o(i._QEIIntNumberGet) for _QEIIntNumberGet
    qei.o(i.QEIIntUnregister) refers to interrupt.o(i.IntDisable) for IntDisable
    qei.o(i.QEIIntUnregister) refers to interrupt.o(i.IntUnregister) for IntUnregister
    shamd5.o(i.SHAMD5DataProcess) refers to shamd5.o(i.SHAMD5HashLengthSet) for SHAMD5HashLengthSet
    shamd5.o(i.SHAMD5DataProcess) refers to shamd5.o(i._SHAMD5DataWriteMultiple) for _SHAMD5DataWriteMultiple
    shamd5.o(i.SHAMD5DataProcess) refers to shamd5.o(i.SHAMD5ResultRead) for SHAMD5ResultRead
    shamd5.o(i.SHAMD5HMACProcess) refers to shamd5.o(i.SHAMD5HashLengthSet) for SHAMD5HashLengthSet
    shamd5.o(i.SHAMD5HMACProcess) refers to shamd5.o(i._SHAMD5DataWriteMultiple) for _SHAMD5DataWriteMultiple
    shamd5.o(i.SHAMD5HMACProcess) refers to shamd5.o(i.SHAMD5ResultRead) for SHAMD5ResultRead
    shamd5.o(i.SHAMD5IntRegister) refers to interrupt.o(i.IntRegister) for IntRegister
    shamd5.o(i.SHAMD5IntRegister) refers to interrupt.o(i.IntEnable) for IntEnable
    shamd5.o(i.SHAMD5IntUnregister) refers to interrupt.o(i.IntDisable) for IntDisable
    shamd5.o(i.SHAMD5IntUnregister) refers to interrupt.o(i.IntUnregister) for IntUnregister
    shamd5.o(i._SHAMD5DataWriteMultiple) refers to shamd5.o(i.SHAMD5DataWrite) for SHAMD5DataWrite
    ssi.o(i.SSIIntRegister) refers to ssi.o(i._SSIIntNumberGet) for _SSIIntNumberGet
    ssi.o(i.SSIIntRegister) refers to interrupt.o(i.IntRegister) for IntRegister
    ssi.o(i.SSIIntRegister) refers to interrupt.o(i.IntEnable) for IntEnable
    ssi.o(i.SSIIntUnregister) refers to ssi.o(i._SSIIntNumberGet) for _SSIIntNumberGet
    ssi.o(i.SSIIntUnregister) refers to interrupt.o(i.IntDisable) for IntDisable
    ssi.o(i.SSIIntUnregister) refers to interrupt.o(i.IntUnregister) for IntUnregister
    ssi.o(i._SSIIntNumberGet) refers to ssi.o(.constdata) for g_ppui32SSIIntMap
    sw_crc.o(i.Crc16) refers to sw_crc.o(.constdata) for g_pui16Crc16
    sw_crc.o(i.Crc16Array) refers to sw_crc.o(i.Crc16) for Crc16
    sw_crc.o(i.Crc16Array3) refers to sw_crc.o(.constdata) for g_pui16Crc16
    sw_crc.o(i.Crc32) refers to sw_crc.o(.constdata) for g_pui32Crc32
    sw_crc.o(i.Crc8CCITT) refers to sw_crc.o(.constdata) for g_pui8Crc8CCITT
    sysctl.o(i.SysCtlClockFreqSet) refers to sysctl.o(i._SysCtlMemTimingGet) for _SysCtlMemTimingGet
    sysctl.o(i.SysCtlClockFreqSet) refers to sysctl.o(i._SysCtlFrequencyGet) for _SysCtlFrequencyGet
    sysctl.o(i.SysCtlClockFreqSet) refers to sysctl.o(.constdata) for g_pui32Xtals
    sysctl.o(i.SysCtlClockGet) refers to sysctl.o(.constdata) for g_pui32Xtals
    sysctl.o(i.SysCtlClockSet) refers to sysctl.o(.emb_text) for SysCtlDelay
    sysctl.o(i.SysCtlDeepSleep) refers to cpu.o(.emb_text) for CPUwfi
    sysctl.o(i.SysCtlIntRegister) refers to interrupt.o(i.IntRegister) for IntRegister
    sysctl.o(i.SysCtlIntRegister) refers to interrupt.o(i.IntEnable) for IntEnable
    sysctl.o(i.SysCtlIntUnregister) refers to interrupt.o(i.IntDisable) for IntDisable
    sysctl.o(i.SysCtlIntUnregister) refers to interrupt.o(i.IntUnregister) for IntUnregister
    sysctl.o(i.SysCtlSleep) refers to cpu.o(.emb_text) for CPUwfi
    sysctl.o(i._SysCtlMemTimingGet) refers to sysctl.o(.constdata) for g_sXTALtoMEMTIM
    sysexc.o(i.SysExcIntRegister) refers to sysexc.o(i._SysExcIntNumberGet) for _SysExcIntNumberGet
    sysexc.o(i.SysExcIntRegister) refers to interrupt.o(i.IntRegister) for IntRegister
    sysexc.o(i.SysExcIntRegister) refers to interrupt.o(i.IntEnable) for IntEnable
    sysexc.o(i.SysExcIntUnregister) refers to sysexc.o(i._SysExcIntNumberGet) for _SysExcIntNumberGet
    sysexc.o(i.SysExcIntUnregister) refers to interrupt.o(i.IntDisable) for IntDisable
    sysexc.o(i.SysExcIntUnregister) refers to interrupt.o(i.IntUnregister) for IntUnregister
    systick.o(i.SysTickIntRegister) refers to interrupt.o(i.IntRegister) for IntRegister
    systick.o(i.SysTickIntUnregister) refers to interrupt.o(i.IntUnregister) for IntUnregister
    timer.o(i.TimerIntRegister) refers to timer.o(i._TimerIntNumberGet) for _TimerIntNumberGet
    timer.o(i.TimerIntRegister) refers to interrupt.o(i.IntRegister) for IntRegister
    timer.o(i.TimerIntRegister) refers to interrupt.o(i.IntEnable) for IntEnable
    timer.o(i.TimerIntUnregister) refers to timer.o(i._TimerIntNumberGet) for _TimerIntNumberGet
    timer.o(i.TimerIntUnregister) refers to interrupt.o(i.IntDisable) for IntDisable
    timer.o(i.TimerIntUnregister) refers to interrupt.o(i.IntUnregister) for IntUnregister
    timer.o(i._TimerIntNumberGet) refers to timer.o(.constdata) for g_ppui32TimerIntMap
    uart.o(i.UARTConfigSetExpClk) refers to uart.o(i.UARTDisable) for UARTDisable
    uart.o(i.UARTConfigSetExpClk) refers to uart.o(i.UARTEnable) for UARTEnable
    uart.o(i.UARTIntRegister) refers to uart.o(i._UARTIntNumberGet) for _UARTIntNumberGet
    uart.o(i.UARTIntRegister) refers to interrupt.o(i.IntRegister) for IntRegister
    uart.o(i.UARTIntRegister) refers to interrupt.o(i.IntEnable) for IntEnable
    uart.o(i.UARTIntUnregister) refers to uart.o(i._UARTIntNumberGet) for _UARTIntNumberGet
    uart.o(i.UARTIntUnregister) refers to interrupt.o(i.IntDisable) for IntDisable
    uart.o(i.UARTIntUnregister) refers to interrupt.o(i.IntUnregister) for IntUnregister
    uart.o(i._UARTIntNumberGet) refers to uart.o(.constdata) for g_ppui32UARTIntMap
    udma.o(i.uDMAIntRegister) refers to interrupt.o(i.IntRegister) for IntRegister
    udma.o(i.uDMAIntRegister) refers to interrupt.o(i.IntEnable) for IntEnable
    udma.o(i.uDMAIntUnregister) refers to interrupt.o(i.IntDisable) for IntDisable
    udma.o(i.uDMAIntUnregister) refers to interrupt.o(i.IntUnregister) for IntUnregister
    usb.o(i.USBFIFOConfigGet) refers to usb.o(i._USBIndexRead) for _USBIndexRead
    usb.o(i.USBFIFOConfigSet) refers to usb.o(i._USBIndexWrite) for _USBIndexWrite
    usb.o(i.USBIntRegister) refers to usb.o(i._USBIntNumberGet) for _USBIntNumberGet
    usb.o(i.USBIntRegister) refers to interrupt.o(i.IntRegister) for IntRegister
    usb.o(i.USBIntRegister) refers to interrupt.o(i.IntEnable) for IntEnable
    usb.o(i.USBIntUnregister) refers to usb.o(i._USBIntNumberGet) for _USBIntNumberGet
    usb.o(i.USBIntUnregister) refers to interrupt.o(i.IntDisable) for IntDisable
    usb.o(i.USBIntUnregister) refers to interrupt.o(i.IntUnregister) for IntUnregister
    watchdog.o(i.WatchdogIntRegister) refers to interrupt.o(i.IntRegister) for IntRegister
    watchdog.o(i.WatchdogIntRegister) refers to interrupt.o(i.IntEnable) for IntEnable
    watchdog.o(i.WatchdogIntUnregister) refers to interrupt.o(i.IntDisable) for IntDisable
    watchdog.o(i.WatchdogIntUnregister) refers to interrupt.o(i.IntUnregister) for IntUnregister
    ak8963.o(i.AK8963DataMagnetoGetFloat) refers to ak8963.o(.constdata) for g_fAK8963Factors
    ak8963.o(i.AK8963DataRead) refers to i2cm_drv.o(i.I2CMRead) for I2CMRead
    ak8963.o(i.AK8963DataRead) refers to ak8963.o(i.AK8963Callback) for AK8963Callback
    ak8963.o(i.AK8963Read) refers to i2cm_drv.o(i.I2CMRead) for I2CMRead
    ak8963.o(i.AK8963Read) refers to ak8963.o(i.AK8963Callback) for AK8963Callback
    ak8963.o(i.AK8963ReadModifyWrite) refers to i2cm_drv.o(i.I2CMReadModifyWrite8) for I2CMReadModifyWrite8
    ak8963.o(i.AK8963ReadModifyWrite) refers to ak8963.o(i.AK8963Callback) for AK8963Callback
    ak8963.o(i.AK8963Write) refers to i2cm_drv.o(i.I2CMWrite8) for I2CMWrite8
    ak8963.o(i.AK8963Write) refers to ak8963.o(i.AK8963Callback) for AK8963Callback
    ak8975.o(i.AK8975DataMagnetoGetFloat) refers to f2d.o(x$fpl$f2d) for __aeabi_f2d
    ak8975.o(i.AK8975DataMagnetoGetFloat) refers to dmul.o(x$fpl$dmul) for __aeabi_dmul
    ak8975.o(i.AK8975DataMagnetoGetFloat) refers to d2f.o(x$fpl$d2f) for __aeabi_d2f
    ak8975.o(i.AK8975DataRead) refers to i2cm_drv.o(i.I2CMRead) for I2CMRead
    ak8975.o(i.AK8975DataRead) refers to ak8975.o(i.AK8975Callback) for AK8975Callback
    ak8975.o(i.AK8975Read) refers to i2cm_drv.o(i.I2CMRead) for I2CMRead
    ak8975.o(i.AK8975Read) refers to ak8975.o(i.AK8975Callback) for AK8975Callback
    ak8975.o(i.AK8975ReadModifyWrite) refers to i2cm_drv.o(i.I2CMReadModifyWrite8) for I2CMReadModifyWrite8
    ak8975.o(i.AK8975ReadModifyWrite) refers to ak8975.o(i.AK8975Callback) for AK8975Callback
    ak8975.o(i.AK8975Write) refers to i2cm_drv.o(i.I2CMWrite8) for I2CMWrite8
    ak8975.o(i.AK8975Write) refers to ak8975.o(i.AK8975Callback) for AK8975Callback
    bmp180.o(i.BMP180Callback) refers to i2cm_drv.o(i.I2CMRead) for I2CMRead
    bmp180.o(i.BMP180Callback) refers to i2cm_drv.o(i.I2CMWrite) for I2CMWrite
    bmp180.o(i.BMP180DataRead) refers to i2cm_drv.o(i.I2CMWrite) for I2CMWrite
    bmp180.o(i.BMP180DataRead) refers to bmp180.o(i.BMP180Callback) for BMP180Callback
    bmp180.o(i.BMP180Init) refers to i2cm_drv.o(i.I2CMWrite) for I2CMWrite
    bmp180.o(i.BMP180Init) refers to bmp180.o(i.BMP180Callback) for BMP180Callback
    bmp180.o(i.BMP180Read) refers to i2cm_drv.o(i.I2CMRead) for I2CMRead
    bmp180.o(i.BMP180Read) refers to bmp180.o(i.BMP180Callback) for BMP180Callback
    bmp180.o(i.BMP180ReadModifyWrite) refers to i2cm_drv.o(i.I2CMReadModifyWrite8) for I2CMReadModifyWrite8
    bmp180.o(i.BMP180ReadModifyWrite) refers to bmp180.o(i.BMP180Callback) for BMP180Callback
    bmp180.o(i.BMP180Write) refers to i2cm_drv.o(i.I2CMWrite8) for I2CMWrite8
    bmp180.o(i.BMP180Write) refers to bmp180.o(i.BMP180Callback) for BMP180Callback
    bq27510g3.o(i.BQ27510G3Callback) refers to i2cm_drv.o(i.I2CMRead) for I2CMRead
    bq27510g3.o(i.BQ27510G3DataAtRateTimeToEmptyGetFloat) refers to bq27510g3.o(i.BQ27510G3DataAtRateTimeToEmptyGetRaw) for BQ27510G3DataAtRateTimeToEmptyGetRaw
    bq27510g3.o(i.BQ27510G3DataCapacityFullAvailableGetFloat) refers to bq27510g3.o(i.BQ27510G3DataCapacityFullAvailableGetRaw) for BQ27510G3DataCapacityFullAvailableGetRaw
    bq27510g3.o(i.BQ27510G3DataCapacityFullChargeGetFloat) refers to bq27510g3.o(i.BQ27510G3DataCapacityFullChargeGetRaw) for BQ27510G3DataCapacityFullChargeGetRaw
    bq27510g3.o(i.BQ27510G3DataCapacityNominalAvailableGetFloat) refers to bq27510g3.o(i.BQ27510G3DataCapacityNominalAvailableGetRaw) for BQ27510G3DataCapacityNominalAvailableGetRaw
    bq27510g3.o(i.BQ27510G3DataCapacityRemainingGetFloat) refers to bq27510g3.o(i.BQ27510G3DataCapacityRemainingGetRaw) for BQ27510G3DataCapacityRemainingGetRaw
    bq27510g3.o(i.BQ27510G3DataChargeStateGetFloat) refers to bq27510g3.o(i.BQ27510G3DataChargeStateGetRaw) for BQ27510G3DataChargeStateGetRaw
    bq27510g3.o(i.BQ27510G3DataCurrentAverageGetFloat) refers to bq27510g3.o(i.BQ27510G3DataCurrentAverageGetRaw) for BQ27510G3DataCurrentAverageGetRaw
    bq27510g3.o(i.BQ27510G3DataCurrentInstantaneousGetFloat) refers to bq27510g3.o(i.BQ27510G3DataCurrentInstantaneousGetRaw) for BQ27510G3DataCurrentInstantaneousGetRaw
    bq27510g3.o(i.BQ27510G3DataCurrentStandbyGetFloat) refers to bq27510g3.o(i.BQ27510G3DataCurrentStandbyGetRaw) for BQ27510G3DataCurrentStandbyGetRaw
    bq27510g3.o(i.BQ27510G3DataCycleCountGetFloat) refers to bq27510g3.o(i.BQ27510G3DataCycleCountGetRaw) for BQ27510G3DataCycleCountGetRaw
    bq27510g3.o(i.BQ27510G3DataHealthGetFloat) refers to bq27510g3.o(i.BQ27510G3DataHealthGetRaw) for BQ27510G3DataHealthGetRaw
    bq27510g3.o(i.BQ27510G3DataRead) refers to i2cm_drv.o(i.I2CMRead) for I2CMRead
    bq27510g3.o(i.BQ27510G3DataRead) refers to bq27510g3.o(i.BQ27510G3Callback) for BQ27510G3Callback
    bq27510g3.o(i.BQ27510G3DataTemperatureBatteryGetFloat) refers to bq27510g3.o(i.BQ27510G3DataTemperatureBatteryGetRaw) for BQ27510G3DataTemperatureBatteryGetRaw
    bq27510g3.o(i.BQ27510G3DataTemperatureInternalGetFloat) refers to bq27510g3.o(i.BQ27510G3DataTemperatureInternalGetRaw) for BQ27510G3DataTemperatureInternalGetRaw
    bq27510g3.o(i.BQ27510G3DataTimeToEmptyGetFloat) refers to bq27510g3.o(i.BQ27510G3DataTimeToEmptyGetRaw) for BQ27510G3DataTimeToEmptyGetRaw
    bq27510g3.o(i.BQ27510G3DataTimeToEmptyStandbyGetFloat) refers to bq27510g3.o(i.BQ27510G3DataTimeToEmptyStandbyGetRaw) for BQ27510G3DataTimeToEmptyStandbyGetRaw
    bq27510g3.o(i.BQ27510G3DataVoltageBatteryGetFloat) refers to bq27510g3.o(i.BQ27510G3DataVoltageBatteryGetRaw) for BQ27510G3DataVoltageBatteryGetRaw
    bq27510g3.o(i.BQ27510G3Read) refers to i2cm_drv.o(i.I2CMRead16BE) for I2CMRead16BE
    bq27510g3.o(i.BQ27510G3Read) refers to bq27510g3.o(i.BQ27510G3Callback) for BQ27510G3Callback
    bq27510g3.o(i.BQ27510G3ReadModifyWrite) refers to i2cm_drv.o(i.I2CMReadModifyWrite16LE) for I2CMReadModifyWrite16LE
    bq27510g3.o(i.BQ27510G3ReadModifyWrite) refers to bq27510g3.o(i.BQ27510G3Callback) for BQ27510G3Callback
    bq27510g3.o(i.BQ27510G3Write) refers to i2cm_drv.o(i.I2CMWrite16BE) for I2CMWrite16BE
    bq27510g3.o(i.BQ27510G3Write) refers to bq27510g3.o(i.BQ27510G3Callback) for BQ27510G3Callback
    cm3218.o(i.CM3218DataLightVisibleGetFloat) refers to cm3218.o(i.CM3218DataLightVisibleGetRaw) for CM3218DataLightVisibleGetRaw
    cm3218.o(i.CM3218DataLightVisibleGetFloat) refers to cm3218.o(.constdata) for g_pfSensitivityLookup
    cm3218.o(i.CM3218DataRead) refers to i2cm_drv.o(i.I2CMRead) for I2CMRead
    cm3218.o(i.CM3218DataRead) refers to cm3218.o(i.CM3218Callback) for CM3218Callback
    cm3218.o(i.CM3218InterruptAcknowledge) refers to i2cm_drv.o(i.I2CMRead) for I2CMRead
    cm3218.o(i.CM3218InterruptAcknowledge) refers to cm3218.o(.data) for ui8ReadBuf
    cm3218.o(i.CM3218Read) refers to i2cm_drv.o(i.I2CMRead16BE) for I2CMRead16BE
    cm3218.o(i.CM3218Read) refers to cm3218.o(i.CM3218Callback) for CM3218Callback
    cm3218.o(i.CM3218Write) refers to i2cm_drv.o(i.I2CMWrite16BE) for I2CMWrite16BE
    cm3218.o(i.CM3218Write) refers to cm3218.o(i.CM3218Callback) for CM3218Callback
    comp_dcm.o(i.CompDCMComputeEulers) refers to atan2f.o(i.__hardfp_atan2f) for __hardfp_atan2f
    comp_dcm.o(i.CompDCMComputeEulers) refers to asinf.o(i.__hardfp_asinf) for __hardfp_asinf
    comp_dcm.o(i.CompDCMComputeQuaternion) refers to sqrtf.o(i.__hardfp_sqrtf) for __hardfp_sqrtf
    comp_dcm.o(i.CompDCMStart) refers to vector.o(i.VectorCrossProduct) for VectorCrossProduct
    comp_dcm.o(i.CompDCMStart) refers to vector.o(i.VectorDotProduct) for VectorDotProduct
    comp_dcm.o(i.CompDCMStart) refers to sqrtf.o(i.__hardfp_sqrtf) for __hardfp_sqrtf
    comp_dcm.o(i.CompDCMStart) refers to vector.o(i.VectorScale) for VectorScale
    comp_dcm.o(i.CompDCMUpdate) refers to vector.o(i.VectorCrossProduct) for VectorCrossProduct
    comp_dcm.o(i.CompDCMUpdate) refers to vector.o(i.VectorDotProduct) for VectorDotProduct
    comp_dcm.o(i.CompDCMUpdate) refers to sqrtf.o(i.__hardfp_sqrtf) for __hardfp_sqrtf
    comp_dcm.o(i.CompDCMUpdate) refers to vector.o(i.VectorScale) for VectorScale
    comp_dcm.o(i.CompDCMUpdate) refers to vector.o(i.VectorAdd) for VectorAdd
    comp_dcm.o(i.CompDCMUpdate) refers to f2d.o(x$fpl$f2d) for __aeabi_f2d
    comp_dcm.o(i.CompDCMUpdate) refers to ddiv.o(x$fpl$ddiv) for __aeabi_ddiv
    comp_dcm.o(i.CompDCMUpdate) refers to d2f.o(x$fpl$d2f) for __aeabi_d2f
    comp_dcm.o(i.CompDCMUpdate) refers to daddsub_clz.o(x$fpl$drsb) for __aeabi_drsub
    comp_dcm.o(i.CompDCMUpdate) refers to dmul.o(x$fpl$dmul) for __aeabi_dmul
    comp_dcm.o(i.CompDCMUpdate) refers to comp_dcm.o(i.__ARM_isnanf) for __ARM_isnanf
    i2cm_drv.o(i.I2CMCommand) refers to interrupt.o(i.IntTrigger) for IntTrigger
    i2cm_drv.o(i.I2CMIntHandler) refers to i2cm_drv.o(i.I2CMStateIdle) for I2CMStateIdle
    i2cm_drv.o(i.I2CMIntHandler) refers to i2cm_drv.o(i.I2CMStateWriteNext) for I2CMStateWriteNext
    i2cm_drv.o(i.I2CMIntHandler) refers to i2cm_drv.o(i.I2CMStateWriteFinal) for I2CMStateWriteFinal
    i2cm_drv.o(i.I2CMIntHandler) refers to i2cm_drv.o(i.I2CMStateWritePause) for I2CMStateWritePause
    i2cm_drv.o(i.I2CMIntHandler) refers to i2cm_drv.o(i.I2CMStateReadOne) for I2CMStateReadOne
    i2cm_drv.o(i.I2CMIntHandler) refers to i2cm_drv.o(i.I2CMStateReadFirst) for I2CMStateReadFirst
    i2cm_drv.o(i.I2CMIntHandler) refers to i2cm_drv.o(i.I2CMStateReadNext) for I2CMStateReadNext
    i2cm_drv.o(i.I2CMIntHandler) refers to i2cm_drv.o(i.I2CMStateReadFinal) for I2CMStateReadFinal
    i2cm_drv.o(i.I2CMIntHandler) refers to i2cm_drv.o(i.I2CMStateReadPause) for I2CMStateReadPause
    i2cm_drv.o(i.I2CMIntHandler) refers to i2cm_drv.o(i.I2CMStateReadWait) for I2CMStateReadWait
    i2cm_drv.o(i.I2CMIntHandler) refers to i2cm_drv.o(i.I2CMStateCallback) for I2CMStateCallback
    i2cm_drv.o(i.I2CMRead16BE) refers to i2cm_drv.o(i.I2CMRead) for I2CMRead
    i2cm_drv.o(i.I2CMRead16BE) refers to i2cm_drv.o(i.I2CMRead16BECallback) for I2CMRead16BECallback
    i2cm_drv.o(i.I2CMReadModifyWrite16LE) refers to i2cm_drv.o(i.I2CMWrite) for I2CMWrite
    i2cm_drv.o(i.I2CMReadModifyWrite16LE) refers to i2cm_drv.o(i.I2CMRead) for I2CMRead
    i2cm_drv.o(i.I2CMReadModifyWrite16LE) refers to i2cm_drv.o(i.I2CMReadModifyWrite16LECallback) for I2CMReadModifyWrite16LECallback
    i2cm_drv.o(i.I2CMReadModifyWrite16LECallback) refers to i2cm_drv.o(i.I2CMWrite) for I2CMWrite
    i2cm_drv.o(i.I2CMReadModifyWrite8) refers to i2cm_drv.o(i.I2CMWrite) for I2CMWrite
    i2cm_drv.o(i.I2CMReadModifyWrite8) refers to i2cm_drv.o(i.I2CMRead) for I2CMRead
    i2cm_drv.o(i.I2CMReadModifyWrite8) refers to i2cm_drv.o(i.I2CMReadModifyWrite8Callback) for I2CMReadModifyWrite8Callback
    i2cm_drv.o(i.I2CMReadModifyWrite8Callback) refers to i2cm_drv.o(i.I2CMWrite) for I2CMWrite
    i2cm_drv.o(i.I2CMTransferResume) refers to interrupt.o(i.IntTrigger) for IntTrigger
    i2cm_drv.o(i.I2CMWrite16BE) refers to i2cm_drv.o(i.I2CMWriteBatched) for I2CMWriteBatched
    i2cm_drv.o(i.I2CMWrite16BE) refers to i2cm_drv.o(i.I2CMWrite16BECallback) for I2CMWrite16BECallback
    i2cm_drv.o(i.I2CMWrite16BECallback) refers to i2cm_drv.o(i.I2CMTransferResume) for I2CMTransferResume
    i2cm_drv.o(i.I2CMWrite8) refers to i2cm_drv.o(i.I2CMWriteBatched) for I2CMWriteBatched
    i2cm_drv.o(i.I2CMWrite8) refers to i2cm_drv.o(i.I2CMWrite8Callback) for I2CMWrite8Callback
    i2cm_drv.o(i.I2CMWrite8Callback) refers to i2cm_drv.o(i.I2CMTransferResume) for I2CMTransferResume
    isl29023.o(i.ISL29023DataLightIRGetFloat) refers to isl29023.o(i.ISL29023DataLightIRGetRaw) for ISL29023DataLightIRGetRaw
    isl29023.o(i.ISL29023DataLightIRGetFloat) refers to isl29023.o(.constdata) for g_fBetaLookup
    isl29023.o(i.ISL29023DataLightVisibleGetFloat) refers to isl29023.o(i.ISL29023DataLightVisibleGetRaw) for ISL29023DataLightVisibleGetRaw
    isl29023.o(i.ISL29023DataLightVisibleGetFloat) refers to isl29023.o(.constdata) for g_fRangeLookup
    isl29023.o(i.ISL29023DataRead) refers to i2cm_drv.o(i.I2CMRead) for I2CMRead
    isl29023.o(i.ISL29023DataRead) refers to isl29023.o(i.ISL29023Callback) for ISL29023Callback
    isl29023.o(i.ISL29023Init) refers to i2cm_drv.o(i.I2CMCommand) for I2CMCommand
    isl29023.o(i.ISL29023Init) refers to isl29023.o(i.ISL29023Callback) for ISL29023Callback
    isl29023.o(i.ISL29023Read) refers to i2cm_drv.o(i.I2CMRead) for I2CMRead
    isl29023.o(i.ISL29023Read) refers to isl29023.o(i.ISL29023Callback) for ISL29023Callback
    isl29023.o(i.ISL29023ReadModifyWrite) refers to i2cm_drv.o(i.I2CMReadModifyWrite8) for I2CMReadModifyWrite8
    isl29023.o(i.ISL29023ReadModifyWrite) refers to isl29023.o(i.ISL29023Callback) for ISL29023Callback
    isl29023.o(i.ISL29023Write) refers to i2cm_drv.o(i.I2CMWrite8) for I2CMWrite8
    isl29023.o(i.ISL29023Write) refers to isl29023.o(i.ISL29023Callback) for ISL29023Callback
    kxti9.o(i.KXTI9Callback) refers to i2cm_drv.o(i.I2CMRead) for I2CMRead
    kxti9.o(i.KXTI9Callback) refers to i2cm_drv.o(i.I2CMWrite) for I2CMWrite
    kxti9.o(i.KXTI9DataAccelGetFloat) refers to kxti9.o(.constdata) for g_fAccelFactors8
    kxti9.o(i.KXTI9DataRead) refers to i2cm_drv.o(i.I2CMRead) for I2CMRead
    kxti9.o(i.KXTI9DataRead) refers to kxti9.o(i.KXTI9Callback) for KXTI9Callback
    kxti9.o(i.KXTI9Init) refers to i2cm_drv.o(i.I2CMWrite) for I2CMWrite
    kxti9.o(i.KXTI9Init) refers to kxti9.o(i.KXTI9Callback) for KXTI9Callback
    kxti9.o(i.KXTI9Read) refers to i2cm_drv.o(i.I2CMRead) for I2CMRead
    kxti9.o(i.KXTI9Read) refers to kxti9.o(i.KXTI9Callback) for KXTI9Callback
    kxti9.o(i.KXTI9ReadModifyWrite) refers to i2cm_drv.o(i.I2CMReadModifyWrite8) for I2CMReadModifyWrite8
    kxti9.o(i.KXTI9ReadModifyWrite) refers to kxti9.o(i.KXTI9Callback) for KXTI9Callback
    kxti9.o(i.KXTI9Write) refers to i2cm_drv.o(i.I2CMWrite) for I2CMWrite
    kxti9.o(i.KXTI9Write) refers to kxti9.o(i.KXTI9Callback) for KXTI9Callback
    l3gd20h.o(i.L3GD20HCallback) refers to i2cm_drv.o(i.I2CMRead) for I2CMRead
    l3gd20h.o(i.L3GD20HDataGyroGetFloat) refers to l3gd20h.o(.constdata) for g_pfL3GD20HGyroFactors
    l3gd20h.o(i.L3GD20HDataRead) refers to i2cm_drv.o(i.I2CMRead) for I2CMRead
    l3gd20h.o(i.L3GD20HDataRead) refers to l3gd20h.o(i.L3GD20HCallback) for L3GD20HCallback
    l3gd20h.o(i.L3GD20HInit) refers to i2cm_drv.o(i.I2CMCommand) for I2CMCommand
    l3gd20h.o(i.L3GD20HInit) refers to l3gd20h.o(i.L3GD20HCallback) for L3GD20HCallback
    l3gd20h.o(i.L3GD20HRead) refers to i2cm_drv.o(i.I2CMRead) for I2CMRead
    l3gd20h.o(i.L3GD20HRead) refers to l3gd20h.o(i.L3GD20HCallback) for L3GD20HCallback
    l3gd20h.o(i.L3GD20HReadModifyWrite) refers to i2cm_drv.o(i.I2CMReadModifyWrite8) for I2CMReadModifyWrite8
    l3gd20h.o(i.L3GD20HReadModifyWrite) refers to l3gd20h.o(i.L3GD20HCallback) for L3GD20HCallback
    l3gd20h.o(i.L3GD20HWrite) refers to i2cm_drv.o(i.I2CMWrite8) for I2CMWrite8
    l3gd20h.o(i.L3GD20HWrite) refers to l3gd20h.o(i.L3GD20HCallback) for L3GD20HCallback
    lsm303d.o(i.LSM303DCallback) refers to i2cm_drv.o(i.I2CMRead) for I2CMRead
    lsm303d.o(i.LSM303DDataAccelGetFloat) refers to lsm303d.o(.constdata) for g_pfLSM303DAccelFactors
    lsm303d.o(i.LSM303DDataMagnetoGetFloat) refers to lsm303d.o(.constdata) for g_pfLSM303DMagFactors
    lsm303d.o(i.LSM303DDataRead) refers to i2cm_drv.o(i.I2CMRead) for I2CMRead
    lsm303d.o(i.LSM303DDataRead) refers to lsm303d.o(i.LSM303DCallback) for LSM303DCallback
    lsm303d.o(i.LSM303DInit) refers to i2cm_drv.o(i.I2CMCommand) for I2CMCommand
    lsm303d.o(i.LSM303DInit) refers to lsm303d.o(.constdata) for g_pui8ZeroInit
    lsm303d.o(i.LSM303DInit) refers to lsm303d.o(i.LSM303DCallback) for LSM303DCallback
    lsm303d.o(i.LSM303DRead) refers to i2cm_drv.o(i.I2CMRead) for I2CMRead
    lsm303d.o(i.LSM303DRead) refers to lsm303d.o(i.LSM303DCallback) for LSM303DCallback
    lsm303d.o(i.LSM303DReadModifyWrite) refers to i2cm_drv.o(i.I2CMReadModifyWrite8) for I2CMReadModifyWrite8
    lsm303d.o(i.LSM303DReadModifyWrite) refers to lsm303d.o(i.LSM303DCallback) for LSM303DCallback
    lsm303d.o(i.LSM303DWrite) refers to i2cm_drv.o(i.I2CMWrite8) for I2CMWrite8
    lsm303d.o(i.LSM303DWrite) refers to lsm303d.o(i.LSM303DCallback) for LSM303DCallback
    lsm303dlhc_accel.o(i.LSM303DLHCAccelDataAccelGetFloat) refers to lsm303dlhc_accel.o(.constdata) for g_pfLSM303DLHCAccelFactors
    lsm303dlhc_accel.o(i.LSM303DLHCAccelDataRead) refers to i2cm_drv.o(i.I2CMRead) for I2CMRead
    lsm303dlhc_accel.o(i.LSM303DLHCAccelDataRead) refers to lsm303dlhc_accel.o(i.LSM303DLHCCallback) for LSM303DLHCCallback
    lsm303dlhc_accel.o(i.LSM303DLHCAccelInit) refers to i2cm_drv.o(i.I2CMWrite) for I2CMWrite
    lsm303dlhc_accel.o(i.LSM303DLHCAccelInit) refers to lsm303dlhc_accel.o(i.LSM303DLHCCallback) for LSM303DLHCCallback
    lsm303dlhc_accel.o(i.LSM303DLHCAccelInit) refers to lsm303dlhc_accel.o(.constdata) for g_pui8ZeroCtrl1
    lsm303dlhc_accel.o(i.LSM303DLHCAccelRead) refers to i2cm_drv.o(i.I2CMRead) for I2CMRead
    lsm303dlhc_accel.o(i.LSM303DLHCAccelRead) refers to lsm303dlhc_accel.o(i.LSM303DLHCCallback) for LSM303DLHCCallback
    lsm303dlhc_accel.o(i.LSM303DLHCAccelReadModifyWrite) refers to i2cm_drv.o(i.I2CMReadModifyWrite8) for I2CMReadModifyWrite8
    lsm303dlhc_accel.o(i.LSM303DLHCAccelReadModifyWrite) refers to lsm303dlhc_accel.o(i.LSM303DLHCCallback) for LSM303DLHCCallback
    lsm303dlhc_accel.o(i.LSM303DLHCAccelWrite) refers to i2cm_drv.o(i.I2CMWrite8) for I2CMWrite8
    lsm303dlhc_accel.o(i.LSM303DLHCAccelWrite) refers to lsm303dlhc_accel.o(i.LSM303DLHCCallback) for LSM303DLHCCallback
    lsm303dlhc_accel.o(i.LSM303DLHCCallback) refers to i2cm_drv.o(i.I2CMWrite) for I2CMWrite
    lsm303dlhc_accel.o(i.LSM303DLHCCallback) refers to lsm303dlhc_accel.o(.constdata) for g_pui8ZeroFifoCtl
    lsm303dlhc_mag.o(i.LSM303DLHCMagDataMagnetoGetFloat) refers to lsm303dlhc_mag.o(.constdata) for g_pfLSM303DLHCMagnetoFactors
    lsm303dlhc_mag.o(i.LSM303DLHCMagDataRead) refers to i2cm_drv.o(i.I2CMRead) for I2CMRead
    lsm303dlhc_mag.o(i.LSM303DLHCMagDataRead) refers to lsm303dlhc_mag.o(i.LSM303DLHCCallback) for LSM303DLHCCallback
    lsm303dlhc_mag.o(i.LSM303DLHCMagRead) refers to i2cm_drv.o(i.I2CMRead) for I2CMRead
    lsm303dlhc_mag.o(i.LSM303DLHCMagRead) refers to lsm303dlhc_mag.o(i.LSM303DLHCCallback) for LSM303DLHCCallback
    lsm303dlhc_mag.o(i.LSM303DLHCMagReadModifyWrite) refers to i2cm_drv.o(i.I2CMReadModifyWrite8) for I2CMReadModifyWrite8
    lsm303dlhc_mag.o(i.LSM303DLHCMagReadModifyWrite) refers to lsm303dlhc_mag.o(i.LSM303DLHCCallback) for LSM303DLHCCallback
    lsm303dlhc_mag.o(i.LSM303DLHCMagWrite) refers to i2cm_drv.o(i.I2CMWrite8) for I2CMWrite8
    lsm303dlhc_mag.o(i.LSM303DLHCMagWrite) refers to lsm303dlhc_mag.o(i.LSM303DLHCCallback) for LSM303DLHCCallback
    magneto.o(i.MagnetoCompensate) refers to sinf.o(i.__hardfp_sinf) for __hardfp_sinf
    magneto.o(i.MagnetoCompensate) refers to cosf.o(i.__hardfp_cosf) for __hardfp_cosf
    magneto.o(i.MagnetoHeadingCompute) refers to sinf.o(i.__hardfp_sinf) for __hardfp_sinf
    magneto.o(i.MagnetoHeadingCompute) refers to cosf.o(i.__hardfp_cosf) for __hardfp_cosf
    magneto.o(i.MagnetoHeadingCompute) refers to atan2f.o(i.__hardfp_atan2f) for __hardfp_atan2f
    magneto.o(i.MagnetoHeadingCompute) refers to f2d.o(x$fpl$f2d) for __aeabi_f2d
    magneto.o(i.MagnetoHeadingCompute) refers to daddsub_clz.o(x$fpl$dadd) for __aeabi_dadd
    magneto.o(i.MagnetoHeadingCompute) refers to d2f.o(x$fpl$d2f) for __aeabi_d2f
    mpu6050.o(i.MPU6050Callback) refers to i2cm_drv.o(i.I2CMRead) for I2CMRead
    mpu6050.o(i.MPU6050DataAccelGetFloat) refers to mpu6050.o(.constdata) for g_fMPU6050AccelFactors
    mpu6050.o(i.MPU6050DataGyroGetFloat) refers to mpu6050.o(.constdata) for g_fMPU6050GyroFactors
    mpu6050.o(i.MPU6050DataRead) refers to i2cm_drv.o(i.I2CMRead) for I2CMRead
    mpu6050.o(i.MPU6050DataRead) refers to mpu6050.o(i.MPU6050Callback) for MPU6050Callback
    mpu6050.o(i.MPU6050Init) refers to i2cm_drv.o(i.I2CMCommand) for I2CMCommand
    mpu6050.o(i.MPU6050Init) refers to mpu6050.o(i.MPU6050Callback) for MPU6050Callback
    mpu6050.o(i.MPU6050Read) refers to i2cm_drv.o(i.I2CMRead) for I2CMRead
    mpu6050.o(i.MPU6050Read) refers to mpu6050.o(i.MPU6050Callback) for MPU6050Callback
    mpu6050.o(i.MPU6050ReadModifyWrite) refers to i2cm_drv.o(i.I2CMReadModifyWrite8) for I2CMReadModifyWrite8
    mpu6050.o(i.MPU6050ReadModifyWrite) refers to mpu6050.o(i.MPU6050Callback) for MPU6050Callback
    mpu6050.o(i.MPU6050Write) refers to i2cm_drv.o(i.I2CMWrite8) for I2CMWrite8
    mpu6050.o(i.MPU6050Write) refers to mpu6050.o(i.MPU6050Callback) for MPU6050Callback
    mpu9150.o(i.MPU9150Callback) refers to i2cm_drv.o(i.I2CMRead) for I2CMRead
    mpu9150.o(i.MPU9150Callback) refers to i2cm_drv.o(i.I2CMWrite) for I2CMWrite
    mpu9150.o(i.MPU9150DataAccelGetFloat) refers to mpu9150.o(.constdata) for g_fMPU9150AccelFactors
    mpu9150.o(i.MPU9150DataGyroGetFloat) refers to mpu9150.o(.constdata) for g_fMPU9150GyroFactors
    mpu9150.o(i.MPU9150DataMagnetoGetFloat) refers to f2d.o(x$fpl$f2d) for __aeabi_f2d
    mpu9150.o(i.MPU9150DataMagnetoGetFloat) refers to dmul.o(x$fpl$dmul) for __aeabi_dmul
    mpu9150.o(i.MPU9150DataMagnetoGetFloat) refers to d2f.o(x$fpl$d2f) for __aeabi_d2f
    mpu9150.o(i.MPU9150DataRead) refers to i2cm_drv.o(i.I2CMRead) for I2CMRead
    mpu9150.o(i.MPU9150DataRead) refers to mpu9150.o(i.MPU9150Callback) for MPU9150Callback
    mpu9150.o(i.MPU9150Init) refers to i2cm_drv.o(i.I2CMWrite) for I2CMWrite
    mpu9150.o(i.MPU9150Init) refers to mpu9150.o(i.MPU9150Callback) for MPU9150Callback
    mpu9150.o(i.MPU9150Read) refers to i2cm_drv.o(i.I2CMRead) for I2CMRead
    mpu9150.o(i.MPU9150Read) refers to mpu9150.o(i.MPU9150Callback) for MPU9150Callback
    mpu9150.o(i.MPU9150ReadModifyWrite) refers to i2cm_drv.o(i.I2CMReadModifyWrite8) for I2CMReadModifyWrite8
    mpu9150.o(i.MPU9150ReadModifyWrite) refers to mpu9150.o(i.MPU9150Callback) for MPU9150Callback
    mpu9150.o(i.MPU9150Write) refers to i2cm_drv.o(i.I2CMWrite8) for I2CMWrite8
    mpu9150.o(i.MPU9150Write) refers to mpu9150.o(i.MPU9150Callback) for MPU9150Callback
    quaternion.o(i.QuaternionAngle) refers to quaternion.o(i.QuaternionInverse) for QuaternionInverse
    quaternion.o(i.QuaternionAngle) refers to quaternion.o(i.QuaternionMult) for QuaternionMult
    quaternion.o(i.QuaternionAngle) refers to acosf.o(i.__hardfp_acosf) for __hardfp_acosf
    quaternion.o(i.QuaternionAngle) refers to f2d.o(x$fpl$f2d) for __aeabi_f2d
    quaternion.o(i.QuaternionAngle) refers to dmul.o(x$fpl$dmul) for __aeabi_dmul
    quaternion.o(i.QuaternionAngle) refers to d2f.o(x$fpl$d2f) for __aeabi_d2f
    quaternion.o(i.QuaternionFromEuler) refers to f2d.o(x$fpl$f2d) for __aeabi_f2d
    quaternion.o(i.QuaternionFromEuler) refers to dmul.o(x$fpl$dmul) for __aeabi_dmul
    quaternion.o(i.QuaternionFromEuler) refers to ddiv.o(x$fpl$ddiv) for __aeabi_ddiv
    quaternion.o(i.QuaternionFromEuler) refers to d2f.o(x$fpl$d2f) for __aeabi_d2f
    quaternion.o(i.QuaternionFromEuler) refers to cosf.o(i.__hardfp_cosf) for __hardfp_cosf
    quaternion.o(i.QuaternionFromEuler) refers to sinf.o(i.__hardfp_sinf) for __hardfp_sinf
    quaternion.o(i.QuaternionInverse) refers to quaternion.o(i.QuaternionMagnitude) for QuaternionMagnitude
    sht21.o(i.SHT21DataHumidityGetFloat) refers to sht21.o(i.SHT21DataHumidityGetRaw) for SHT21DataHumidityGetRaw
    sht21.o(i.SHT21DataHumidityGetFloat) refers to f2d.o(x$fpl$f2d) for __aeabi_f2d
    sht21.o(i.SHT21DataHumidityGetFloat) refers to ddiv.o(x$fpl$ddiv) for __aeabi_ddiv
    sht21.o(i.SHT21DataHumidityGetFloat) refers to dmul.o(x$fpl$dmul) for __aeabi_dmul
    sht21.o(i.SHT21DataHumidityGetFloat) refers to daddsub_clz.o(x$fpl$dadd) for __aeabi_dadd
    sht21.o(i.SHT21DataHumidityGetFloat) refers to d2f.o(x$fpl$d2f) for __aeabi_d2f
    sht21.o(i.SHT21DataRead) refers to i2cm_drv.o(i.I2CMRead) for I2CMRead
    sht21.o(i.SHT21DataRead) refers to sht21.o(i.SHT21Callback) for SHT21Callback
    sht21.o(i.SHT21DataTemperatureGetFloat) refers to sht21.o(i.SHT21DataTemperatureGetRaw) for SHT21DataTemperatureGetRaw
    sht21.o(i.SHT21DataTemperatureGetFloat) refers to f2d.o(x$fpl$f2d) for __aeabi_f2d
    sht21.o(i.SHT21DataTemperatureGetFloat) refers to ddiv.o(x$fpl$ddiv) for __aeabi_ddiv
    sht21.o(i.SHT21DataTemperatureGetFloat) refers to dmul.o(x$fpl$dmul) for __aeabi_dmul
    sht21.o(i.SHT21DataTemperatureGetFloat) refers to daddsub_clz.o(x$fpl$dadd) for __aeabi_dadd
    sht21.o(i.SHT21DataTemperatureGetFloat) refers to d2f.o(x$fpl$d2f) for __aeabi_d2f
    sht21.o(i.SHT21Init) refers to i2cm_drv.o(i.I2CMCommand) for I2CMCommand
    sht21.o(i.SHT21Init) refers to sht21.o(i.SHT21Callback) for SHT21Callback
    sht21.o(i.SHT21Read) refers to i2cm_drv.o(i.I2CMRead) for I2CMRead
    sht21.o(i.SHT21Read) refers to sht21.o(i.SHT21Callback) for SHT21Callback
    sht21.o(i.SHT21ReadModifyWrite) refers to i2cm_drv.o(i.I2CMReadModifyWrite8) for I2CMReadModifyWrite8
    sht21.o(i.SHT21ReadModifyWrite) refers to sht21.o(i.SHT21Callback) for SHT21Callback
    sht21.o(i.SHT21Write) refers to i2cm_drv.o(i.I2CMWrite8) for I2CMWrite8
    sht21.o(i.SHT21Write) refers to sht21.o(i.SHT21Callback) for SHT21Callback
    tmp006.o(i.TMP006Callback) refers to i2cm_drv.o(i.I2CMRead) for I2CMRead
    tmp006.o(i.TMP006DataRead) refers to i2cm_drv.o(i.I2CMRead) for I2CMRead
    tmp006.o(i.TMP006DataRead) refers to tmp006.o(i.TMP006Callback) for TMP006Callback
    tmp006.o(i.TMP006DataTemperatureGetFloat) refers to tmp006.o(i.TMP006DataTemperatureGetRaw) for TMP006DataTemperatureGetRaw
    tmp006.o(i.TMP006DataTemperatureGetFloat) refers to f2d.o(x$fpl$f2d) for __aeabi_f2d
    tmp006.o(i.TMP006DataTemperatureGetFloat) refers to ddiv.o(x$fpl$ddiv) for __aeabi_ddiv
    tmp006.o(i.TMP006DataTemperatureGetFloat) refers to d2f.o(x$fpl$d2f) for __aeabi_d2f
    tmp006.o(i.TMP006DataTemperatureGetFloat) refers to daddsub_clz.o(x$fpl$dadd) for __aeabi_dadd
    tmp006.o(i.TMP006DataTemperatureGetFloat) refers to dmul.o(x$fpl$dmul) for __aeabi_dmul
    tmp006.o(i.TMP006DataTemperatureGetFloat) refers to daddsub_clz.o(x$fpl$dsub) for __aeabi_dsub
    tmp006.o(i.TMP006DataTemperatureGetFloat) refers to sqrtf.o(i.__hardfp_sqrtf) for __hardfp_sqrtf
    tmp006.o(i.TMP006Init) refers to i2cm_drv.o(i.I2CMCommand) for I2CMCommand
    tmp006.o(i.TMP006Init) refers to tmp006.o(i.TMP006Callback) for TMP006Callback
    tmp006.o(i.TMP006Read) refers to i2cm_drv.o(i.I2CMRead16BE) for I2CMRead16BE
    tmp006.o(i.TMP006Read) refers to tmp006.o(i.TMP006Callback) for TMP006Callback
    tmp006.o(i.TMP006ReadModifyWrite) refers to i2cm_drv.o(i.I2CMReadModifyWrite16LE) for I2CMReadModifyWrite16LE
    tmp006.o(i.TMP006ReadModifyWrite) refers to tmp006.o(i.TMP006Callback) for TMP006Callback
    tmp006.o(i.TMP006Write) refers to i2cm_drv.o(i.I2CMWrite16BE) for I2CMWrite16BE
    tmp006.o(i.TMP006Write) refers to tmp006.o(i.TMP006Callback) for TMP006Callback
    tmp100.o(i.TMP100DataRead) refers to i2cm_drv.o(i.I2CMRead) for I2CMRead
    tmp100.o(i.TMP100DataRead) refers to tmp100.o(i.TMP100Callback) for TMP100Callback
    tmp100.o(i.TMP100DataTemperatureGetFloat) refers to f2d.o(x$fpl$f2d) for __aeabi_f2d
    tmp100.o(i.TMP100DataTemperatureGetFloat) refers to ddiv.o(x$fpl$ddiv) for __aeabi_ddiv
    tmp100.o(i.TMP100DataTemperatureGetFloat) refers to d2f.o(x$fpl$d2f) for __aeabi_d2f
    tmp100.o(i.TMP100Init) refers to i2cm_drv.o(i.I2CMWrite) for I2CMWrite
    tmp100.o(i.TMP100Init) refers to tmp100.o(i.TMP100Callback) for TMP100Callback
    tmp100.o(i.TMP100Read) refers to i2cm_drv.o(i.I2CMRead) for I2CMRead
    tmp100.o(i.TMP100Read) refers to i2cm_drv.o(i.I2CMRead16BE) for I2CMRead16BE
    tmp100.o(i.TMP100Read) refers to tmp100.o(i.TMP100Callback) for TMP100Callback
    tmp100.o(i.TMP100ReadModifyWrite) refers to i2cm_drv.o(i.I2CMReadModifyWrite8) for I2CMReadModifyWrite8
    tmp100.o(i.TMP100ReadModifyWrite) refers to i2cm_drv.o(i.I2CMReadModifyWrite16LE) for I2CMReadModifyWrite16LE
    tmp100.o(i.TMP100ReadModifyWrite) refers to tmp100.o(i.TMP100Callback) for TMP100Callback
    tmp100.o(i.TMP100Write) refers to i2cm_drv.o(i.I2CMWrite) for I2CMWrite
    tmp100.o(i.TMP100Write) refers to i2cm_drv.o(i.I2CMWrite16BE) for I2CMWrite16BE
    tmp100.o(i.TMP100Write) refers to tmp100.o(i.TMP100Callback) for TMP100Callback
    startup_tm4c123.o(STACK) refers (Special) to heapauxi.o(.text) for __use_two_region_memory
    startup_tm4c123.o(HEAP) refers (Special) to heapauxi.o(.text) for __use_two_region_memory
    startup_tm4c123.o(RESET) refers (Special) to heapauxi.o(.text) for __use_two_region_memory
    startup_tm4c123.o(RESET) refers to startup_tm4c123.o(STACK) for __initial_sp
    startup_tm4c123.o(RESET) refers to startup_tm4c123.o(.text) for Reset_Handler
    startup_tm4c123.o(.text) refers (Special) to heapauxi.o(.text) for __use_two_region_memory
    startup_tm4c123.o(.text) refers to system_tm4c123.o(i.SystemInit) for SystemInit
    startup_tm4c123.o(.text) refers to __main.o(!!!main) for __main
    startup_tm4c123.o(.text) refers to startup_tm4c123.o(HEAP) for Heap_Mem
    startup_tm4c123.o(.text) refers to startup_tm4c123.o(STACK) for Stack_Mem
    system_tm4c123.o(i.SystemCoreClockUpdate) refers to system_tm4c123.o(i.getOscClk) for getOscClk
    system_tm4c123.o(i.SystemCoreClockUpdate) refers to system_tm4c123.o(.data) for SystemCoreClock
    vsnprintf.o(.text) refers (Special) to _printf_a.o(.ARM.Collect$$_printf_percent$$00000006) for _printf_a
    vsnprintf.o(.text) refers (Special) to _printf_c.o(.ARM.Collect$$_printf_percent$$00000013) for _printf_c
    vsnprintf.o(.text) refers (Special) to _printf_charcount.o(.text) for _printf_charcount
    vsnprintf.o(.text) refers (Special) to _printf_d.o(.ARM.Collect$$_printf_percent$$00000009) for _printf_d
    vsnprintf.o(.text) refers (Special) to _printf_e.o(.ARM.Collect$$_printf_percent$$00000004) for _printf_e
    vsnprintf.o(.text) refers (Special) to _printf_f.o(.ARM.Collect$$_printf_percent$$00000003) for _printf_f
    vsnprintf.o(.text) refers (Special) to printf1.o(x$fpl$printf1) for _printf_fp_dec
    vsnprintf.o(.text) refers (Special) to printf2.o(x$fpl$printf2) for _printf_fp_hex
    vsnprintf.o(.text) refers (Special) to _printf_g.o(.ARM.Collect$$_printf_percent$$00000005) for _printf_g
    vsnprintf.o(.text) refers (Special) to _printf_i.o(.ARM.Collect$$_printf_percent$$00000008) for _printf_i
    vsnprintf.o(.text) refers (Special) to _printf_dec.o(.text) for _printf_int_dec
    vsnprintf.o(.text) refers (Special) to _printf_l.o(.ARM.Collect$$_printf_percent$$00000012) for _printf_l
    vsnprintf.o(.text) refers (Special) to _printf_lc.o(.ARM.Collect$$_printf_percent$$00000015) for _printf_lc
    vsnprintf.o(.text) refers (Special) to _printf_ll.o(.ARM.Collect$$_printf_percent$$00000007) for _printf_ll
    vsnprintf.o(.text) refers (Special) to _printf_lld.o(.ARM.Collect$$_printf_percent$$0000000E) for _printf_lld
    vsnprintf.o(.text) refers (Special) to _printf_lli.o(.ARM.Collect$$_printf_percent$$0000000D) for _printf_lli
    vsnprintf.o(.text) refers (Special) to _printf_llo.o(.ARM.Collect$$_printf_percent$$00000010) for _printf_llo
    vsnprintf.o(.text) refers (Special) to _printf_llu.o(.ARM.Collect$$_printf_percent$$0000000F) for _printf_llu
    vsnprintf.o(.text) refers (Special) to _printf_llx.o(.ARM.Collect$$_printf_percent$$00000011) for _printf_llx
    vsnprintf.o(.text) refers (Special) to _printf_longlong_dec.o(.text) for _printf_longlong_dec
    vsnprintf.o(.text) refers (Special) to _printf_hex_int_ll_ptr.o(.text) for _printf_longlong_hex
    vsnprintf.o(.text) refers (Special) to _printf_oct_int_ll.o(.text) for _printf_longlong_oct
    vsnprintf.o(.text) refers (Special) to _printf_ls.o(.ARM.Collect$$_printf_percent$$00000016) for _printf_ls
    vsnprintf.o(.text) refers (Special) to _printf_n.o(.ARM.Collect$$_printf_percent$$00000001) for _printf_n
    vsnprintf.o(.text) refers (Special) to _printf_o.o(.ARM.Collect$$_printf_percent$$0000000B) for _printf_o
    vsnprintf.o(.text) refers (Special) to _printf_p.o(.ARM.Collect$$_printf_percent$$00000002) for _printf_p
    vsnprintf.o(.text) refers (Special) to _printf_percent.o(.ARM.Collect$$_printf_percent$$00000000) for _printf_percent
    vsnprintf.o(.text) refers (Special) to _printf_pad.o(.text) for _printf_post_padding
    vsnprintf.o(.text) refers (Special) to _printf_s.o(.ARM.Collect$$_printf_percent$$00000014) for _printf_s
    vsnprintf.o(.text) refers (Special) to _printf_str.o(.text) for _printf_str
    vsnprintf.o(.text) refers (Special) to _printf_truncate.o(.text) for _printf_truncate_signed
    vsnprintf.o(.text) refers (Special) to _printf_u.o(.ARM.Collect$$_printf_percent$$0000000A) for _printf_u
    vsnprintf.o(.text) refers (Special) to _printf_wctomb.o(.text) for _printf_wctomb
    vsnprintf.o(.text) refers (Special) to _printf_x.o(.ARM.Collect$$_printf_percent$$0000000C) for _printf_x
    vsnprintf.o(.text) refers to _printf_char_common.o(.text) for _printf_char_common
    vsnprintf.o(.text) refers to _sputc.o(.text) for _sputc
    vsnprintf.o(.text) refers to _snputc.o(.text) for _snputc
    __main.o(!!!main) refers to __rtentry.o(.ARM.Collect$$rtentry$$00000000) for __rt_entry
    d2f.o(x$fpl$d2f) refers (Special) to usenofp.o(x$fpl$usenofp) for __I$use$fp
    d2f.o(x$fpl$d2f) refers to fretinf.o(x$fpl$fretinf) for __fpl_fretinf
    d2f.o(x$fpl$d2f) refers to dnaninf.o(x$fpl$dnaninf) for __fpl_dnaninf
    daddsub_clz.o(x$fpl$dadd) refers (Special) to usenofp.o(x$fpl$usenofp) for __I$use$fp
    daddsub_clz.o(x$fpl$dadd) refers to daddsub_clz.o(x$fpl$dsub) for _dsub1
    daddsub_clz.o(x$fpl$dadd) refers to dretinf.o(x$fpl$dretinf) for __fpl_dretinf
    daddsub_clz.o(x$fpl$dadd) refers to dnaninf.o(x$fpl$dnaninf) for __fpl_dnaninf
    daddsub_clz.o(x$fpl$drsb) refers (Special) to usenofp.o(x$fpl$usenofp) for __I$use$fp
    daddsub_clz.o(x$fpl$drsb) refers to daddsub_clz.o(x$fpl$dadd) for _dadd1
    daddsub_clz.o(x$fpl$drsb) refers to daddsub_clz.o(x$fpl$dsub) for _dsub1
    daddsub_clz.o(x$fpl$dsub) refers (Special) to usenofp.o(x$fpl$usenofp) for __I$use$fp
    daddsub_clz.o(x$fpl$dsub) refers to daddsub_clz.o(x$fpl$dadd) for _dadd1
    daddsub_clz.o(x$fpl$dsub) refers to dnaninf.o(x$fpl$dnaninf) for __fpl_dnaninf
    ddiv.o(x$fpl$drdiv) refers (Special) to usenofp.o(x$fpl$usenofp) for __I$use$fp
    ddiv.o(x$fpl$drdiv) refers to ddiv.o(x$fpl$ddiv) for ddiv_entry
    ddiv.o(x$fpl$ddiv) refers (Special) to usenofp.o(x$fpl$usenofp) for __I$use$fp
    ddiv.o(x$fpl$ddiv) refers to dretinf.o(x$fpl$dretinf) for __fpl_dretinf
    ddiv.o(x$fpl$ddiv) refers to dnaninf.o(x$fpl$dnaninf) for __fpl_dnaninf
    dmul.o(x$fpl$dmul) refers (Special) to usenofp.o(x$fpl$usenofp) for __I$use$fp
    dmul.o(x$fpl$dmul) refers to dretinf.o(x$fpl$dretinf) for __fpl_dretinf
    dmul.o(x$fpl$dmul) refers to dnaninf.o(x$fpl$dnaninf) for __fpl_dnaninf
    f2d.o(x$fpl$f2d) refers (Special) to usenofp.o(x$fpl$usenofp) for __I$use$fp
    f2d.o(x$fpl$f2d) refers to fnaninf.o(x$fpl$fnaninf) for __fpl_fnaninf
    f2d.o(x$fpl$f2d) refers to dretinf.o(x$fpl$dretinf) for __fpl_dretinf
    acosf.o(i.__hardfp_acosf) refers (Special) to usenofp.o(x$fpl$usenofp) for __I$use$fp
    acosf.o(i.__hardfp_acosf) refers to sqrtf.o(i.sqrtf) for sqrtf
    acosf.o(i.__hardfp_acosf) refers to funder.o(i.__mathlib_flt_infnan) for __mathlib_flt_infnan
    acosf.o(i.__hardfp_acosf) refers to _rserrno.o(.text) for __set_errno
    acosf.o(i.__hardfp_acosf) refers to funder.o(i.__mathlib_flt_invalid) for __mathlib_flt_invalid
    acosf.o(i.__softfp_acosf) refers (Special) to usenofp.o(x$fpl$usenofp) for __I$use$fp
    acosf.o(i.__softfp_acosf) refers to acosf.o(i.__hardfp_acosf) for __hardfp_acosf
    acosf.o(i.acosf) refers (Special) to usenofp.o(x$fpl$usenofp) for __I$use$fp
    acosf.o(i.acosf) refers to acosf.o(i.__hardfp_acosf) for __hardfp_acosf
    acosf_x.o(i.____hardfp_acosf$lsc) refers (Special) to usenofp.o(x$fpl$usenofp) for __I$use$fp
    acosf_x.o(i.____hardfp_acosf$lsc) refers to sqrtf.o(i.sqrtf) for sqrtf
    acosf_x.o(i.____hardfp_acosf$lsc) refers to funder.o(i.__mathlib_flt_infnan) for __mathlib_flt_infnan
    acosf_x.o(i.____hardfp_acosf$lsc) refers to _rserrno.o(.text) for __set_errno
    acosf_x.o(i.____softfp_acosf$lsc) refers (Special) to usenofp.o(x$fpl$usenofp) for __I$use$fp
    acosf_x.o(i.____softfp_acosf$lsc) refers to acosf_x.o(i.____hardfp_acosf$lsc) for ____hardfp_acosf$lsc
    acosf_x.o(i.__acosf$lsc) refers (Special) to usenofp.o(x$fpl$usenofp) for __I$use$fp
    acosf_x.o(i.__acosf$lsc) refers to acosf_x.o(i.____hardfp_acosf$lsc) for ____hardfp_acosf$lsc
    asinf.o(i.__hardfp_asinf) refers (Special) to usenofp.o(x$fpl$usenofp) for __I$use$fp
    asinf.o(i.__hardfp_asinf) refers to sqrtf.o(i.sqrtf) for sqrtf
    asinf.o(i.__hardfp_asinf) refers to fpclassifyf.o(i.__ARM_fpclassifyf) for __ARM_fpclassifyf
    asinf.o(i.__hardfp_asinf) refers to funder.o(i.__mathlib_flt_underflow) for __mathlib_flt_underflow
    asinf.o(i.__hardfp_asinf) refers to funder.o(i.__mathlib_flt_infnan) for __mathlib_flt_infnan
    asinf.o(i.__hardfp_asinf) refers to _rserrno.o(.text) for __set_errno
    asinf.o(i.__hardfp_asinf) refers to funder.o(i.__mathlib_flt_invalid) for __mathlib_flt_invalid
    asinf.o(i.__softfp_asinf) refers (Special) to usenofp.o(x$fpl$usenofp) for __I$use$fp
    asinf.o(i.__softfp_asinf) refers to asinf.o(i.__hardfp_asinf) for __hardfp_asinf
    asinf.o(i.asinf) refers (Special) to usenofp.o(x$fpl$usenofp) for __I$use$fp
    asinf.o(i.asinf) refers to asinf.o(i.__hardfp_asinf) for __hardfp_asinf
    asinf_x.o(i.____hardfp_asinf$lsc) refers (Special) to usenofp.o(x$fpl$usenofp) for __I$use$fp
    asinf_x.o(i.____hardfp_asinf$lsc) refers to sqrtf.o(i.sqrtf) for sqrtf
    asinf_x.o(i.____hardfp_asinf$lsc) refers to funder.o(i.__mathlib_flt_infnan) for __mathlib_flt_infnan
    asinf_x.o(i.____hardfp_asinf$lsc) refers to _rserrno.o(.text) for __set_errno
    asinf_x.o(i.____softfp_asinf$lsc) refers (Special) to usenofp.o(x$fpl$usenofp) for __I$use$fp
    asinf_x.o(i.____softfp_asinf$lsc) refers to asinf_x.o(i.____hardfp_asinf$lsc) for ____hardfp_asinf$lsc
    asinf_x.o(i.__asinf$lsc) refers (Special) to usenofp.o(x$fpl$usenofp) for __I$use$fp
    asinf_x.o(i.__asinf$lsc) refers to asinf_x.o(i.____hardfp_asinf$lsc) for ____hardfp_asinf$lsc
    atan2f.o(i.__hardfp_atan2f) refers (Special) to usenofp.o(x$fpl$usenofp) for __I$use$fp
    atan2f.o(i.__hardfp_atan2f) refers to fpclassifyf.o(i.__ARM_fpclassifyf) for __ARM_fpclassifyf
    atan2f.o(i.__hardfp_atan2f) refers to funder.o(i.__mathlib_flt_underflow) for __mathlib_flt_underflow
    atan2f.o(i.__hardfp_atan2f) refers to funder.o(i.__mathlib_flt_infnan2) for __mathlib_flt_infnan2
    atan2f.o(i.__softfp_atan2f) refers (Special) to usenofp.o(x$fpl$usenofp) for __I$use$fp
    atan2f.o(i.__softfp_atan2f) refers to atan2f.o(i.__hardfp_atan2f) for __hardfp_atan2f
    atan2f.o(i.atan2f) refers (Special) to usenofp.o(x$fpl$usenofp) for __I$use$fp
    atan2f.o(i.atan2f) refers to atan2f.o(i.__hardfp_atan2f) for __hardfp_atan2f
    atan2f_x.o(i.____hardfp_atan2f$lsc) refers (Special) to usenofp.o(x$fpl$usenofp) for __I$use$fp
    atan2f_x.o(i.____hardfp_atan2f$lsc) refers to funder.o(i.__mathlib_flt_infnan2) for __mathlib_flt_infnan2
    atan2f_x.o(i.____hardfp_atan2f$lsc) refers to _rserrno.o(.text) for __set_errno
    atan2f_x.o(i.____softfp_atan2f$lsc) refers (Special) to usenofp.o(x$fpl$usenofp) for __I$use$fp
    atan2f_x.o(i.____softfp_atan2f$lsc) refers to atan2f_x.o(i.____hardfp_atan2f$lsc) for ____hardfp_atan2f$lsc
    atan2f_x.o(i.__atan2f$lsc) refers (Special) to usenofp.o(x$fpl$usenofp) for __I$use$fp
    atan2f_x.o(i.__atan2f$lsc) refers to atan2f_x.o(i.____hardfp_atan2f$lsc) for ____hardfp_atan2f$lsc
    cosf.o(i.__hardfp_cosf) refers (Special) to usenofp.o(x$fpl$usenofp) for __I$use$fp
    cosf.o(i.__hardfp_cosf) refers to rredf.o(i.__mathlib_rredf2) for __mathlib_rredf2
    cosf.o(i.__hardfp_cosf) refers to _rserrno.o(.text) for __set_errno
    cosf.o(i.__hardfp_cosf) refers to funder.o(i.__mathlib_flt_invalid) for __mathlib_flt_invalid
    cosf.o(i.__hardfp_cosf) refers to funder.o(i.__mathlib_flt_infnan) for __mathlib_flt_infnan
    cosf.o(i.__softfp_cosf) refers (Special) to usenofp.o(x$fpl$usenofp) for __I$use$fp
    cosf.o(i.__softfp_cosf) refers to cosf.o(i.__hardfp_cosf) for __hardfp_cosf
    cosf.o(i.cosf) refers (Special) to usenofp.o(x$fpl$usenofp) for __I$use$fp
    cosf.o(i.cosf) refers to cosf.o(i.__hardfp_cosf) for __hardfp_cosf
    cosf_x.o(i.____hardfp_cosf$lsc) refers (Special) to usenofp.o(x$fpl$usenofp) for __I$use$fp
    cosf_x.o(i.____hardfp_cosf$lsc) refers to rredf.o(i.__mathlib_rredf2) for __mathlib_rredf2
    cosf_x.o(i.____hardfp_cosf$lsc) refers to _rserrno.o(.text) for __set_errno
    cosf_x.o(i.____hardfp_cosf$lsc) refers to funder.o(i.__mathlib_flt_infnan) for __mathlib_flt_infnan
    cosf_x.o(i.____softfp_cosf$lsc) refers (Special) to usenofp.o(x$fpl$usenofp) for __I$use$fp
    cosf_x.o(i.____softfp_cosf$lsc) refers to cosf_x.o(i.____hardfp_cosf$lsc) for ____hardfp_cosf$lsc
    cosf_x.o(i.__cosf$lsc) refers (Special) to usenofp.o(x$fpl$usenofp) for __I$use$fp
    cosf_x.o(i.__cosf$lsc) refers to cosf_x.o(i.____hardfp_cosf$lsc) for ____hardfp_cosf$lsc
    sinf.o(i.__hardfp_sinf) refers (Special) to usenofp.o(x$fpl$usenofp) for __I$use$fp
    sinf.o(i.__hardfp_sinf) refers to rredf.o(i.__mathlib_rredf2) for __mathlib_rredf2
    sinf.o(i.__hardfp_sinf) refers to fpclassifyf.o(i.__ARM_fpclassifyf) for __ARM_fpclassifyf
    sinf.o(i.__hardfp_sinf) refers to funder.o(i.__mathlib_flt_underflow) for __mathlib_flt_underflow
    sinf.o(i.__hardfp_sinf) refers to _rserrno.o(.text) for __set_errno
    sinf.o(i.__hardfp_sinf) refers to funder.o(i.__mathlib_flt_invalid) for __mathlib_flt_invalid
    sinf.o(i.__hardfp_sinf) refers to funder.o(i.__mathlib_flt_infnan) for __mathlib_flt_infnan
    sinf.o(i.__softfp_sinf) refers (Special) to usenofp.o(x$fpl$usenofp) for __I$use$fp
    sinf.o(i.__softfp_sinf) refers to sinf.o(i.__hardfp_sinf) for __hardfp_sinf
    sinf.o(i.sinf) refers (Special) to usenofp.o(x$fpl$usenofp) for __I$use$fp
    sinf.o(i.sinf) refers to sinf.o(i.__hardfp_sinf) for __hardfp_sinf
    sinf_x.o(i.____hardfp_sinf$lsc) refers (Special) to usenofp.o(x$fpl$usenofp) for __I$use$fp
    sinf_x.o(i.____hardfp_sinf$lsc) refers to rredf.o(i.__mathlib_rredf2) for __mathlib_rredf2
    sinf_x.o(i.____hardfp_sinf$lsc) refers to _rserrno.o(.text) for __set_errno
    sinf_x.o(i.____hardfp_sinf$lsc) refers to funder.o(i.__mathlib_flt_infnan) for __mathlib_flt_infnan
    sinf_x.o(i.____softfp_sinf$lsc) refers (Special) to usenofp.o(x$fpl$usenofp) for __I$use$fp
    sinf_x.o(i.____softfp_sinf$lsc) refers to sinf_x.o(i.____hardfp_sinf$lsc) for ____hardfp_sinf$lsc
    sinf_x.o(i.__sinf$lsc) refers (Special) to usenofp.o(x$fpl$usenofp) for __I$use$fp
    sinf_x.o(i.__sinf$lsc) refers to sinf_x.o(i.____hardfp_sinf$lsc) for ____hardfp_sinf$lsc
    sqrtf.o(i.__hardfp_sqrtf) refers (Special) to usenofp.o(x$fpl$usenofp) for __I$use$fp
    sqrtf.o(i.__hardfp_sqrtf) refers to _rserrno.o(.text) for __set_errno
    sqrtf.o(i.__softfp_sqrtf) refers (Special) to usenofp.o(x$fpl$usenofp) for __I$use$fp
    sqrtf.o(i.__softfp_sqrtf) refers to _rserrno.o(.text) for __set_errno
    sqrtf.o(i.sqrtf) refers (Special) to usenofp.o(x$fpl$usenofp) for __I$use$fp
    sqrtf.o(i.sqrtf) refers to _rserrno.o(.text) for __set_errno
    sqrtf_x.o(i.____hardfp_sqrtf$lsc) refers (Special) to usenofp.o(x$fpl$usenofp) for __I$use$fp
    sqrtf_x.o(i.____hardfp_sqrtf$lsc) refers to _rserrno.o(.text) for __set_errno
    sqrtf_x.o(i.____softfp_sqrtf$lsc) refers (Special) to usenofp.o(x$fpl$usenofp) for __I$use$fp
    sqrtf_x.o(i.____softfp_sqrtf$lsc) refers to _rserrno.o(.text) for __set_errno
    sqrtf_x.o(i.__sqrtf$lsc) refers (Special) to usenofp.o(x$fpl$usenofp) for __I$use$fp
    sqrtf_x.o(i.__sqrtf$lsc) refers to _rserrno.o(.text) for __set_errno
    __rtentry.o(.ARM.Collect$$rtentry$$00000000) refers (Special) to __rtentry2.o(.ARM.Collect$$rtentry$$0000000A) for __rt_entry_li
    __rtentry.o(.ARM.Collect$$rtentry$$00000000) refers (Special) to __rtentry2.o(.ARM.Collect$$rtentry$$0000000D) for __rt_entry_main
    __rtentry.o(.ARM.Collect$$rtentry$$00000000) refers (Special) to __rtentry2.o(.ARM.Collect$$rtentry$$0000000C) for __rt_entry_postli_1
    __rtentry.o(.ARM.Collect$$rtentry$$00000000) refers (Special) to __rtentry2.o(.ARM.Collect$$rtentry$$00000009) for __rt_entry_postsh_1
    __rtentry.o(.ARM.Collect$$rtentry$$00000000) refers (Special) to __rtentry2.o(.ARM.Collect$$rtentry$$00000002) for __rt_entry_presh_1
    __rtentry.o(.ARM.Collect$$rtentry$$00000000) refers (Special) to __rtentry4.o(.ARM.Collect$$rtentry$$00000004) for __rt_entry_sh
    _rserrno.o(.text) refers to rt_errno_addr_intlibspace.o(.text) for __aeabi_errno_addr
    __printf.o(.text) refers to _printf_percent.o(.ARM.Collect$$_printf_percent$$00000000) for _printf_percent
    _printf_str.o(.text) refers (Special) to _printf_char.o(.text) for _printf_cs_common
    _printf_str.o(.text) refers (Weak) to _printf_pad.o(.text) for _printf_pre_padding
    _printf_str.o(.text) refers (Weak) to _printf_pad.o(.text) for _printf_post_padding
    _printf_dec.o(.text) refers (Weak) to _printf_truncate.o(.text) for _printf_truncate_signed
    _printf_dec.o(.text) refers (Weak) to _printf_truncate.o(.text) for _printf_truncate_unsigned
    _printf_dec.o(.text) refers to _printf_intcommon.o(.text) for _printf_int_common
    _printf_char_common.o(.text) refers to __printf_flags_ss_wp.o(.text) for __printf
    _printf_wctomb.o(.text) refers (Special) to _printf_wchar.o(.text) for _printf_lcs_common
    _printf_wctomb.o(.text) refers to _wcrtomb.o(.text) for _wcrtomb
    _printf_wctomb.o(.text) refers (Weak) to _printf_pad.o(.text) for _printf_pre_padding
    _printf_wctomb.o(.text) refers (Weak) to _printf_pad.o(.text) for _printf_post_padding
    _printf_wctomb.o(.text) refers to _printf_wctomb.o(.constdata) for .constdata
    _printf_wctomb.o(.constdata) refers (Special) to _printf_wchar.o(.text) for _printf_lcs_common
    _printf_longlong_dec.o(.text) refers to lludiv10.o(.text) for _ll_udiv10
    _printf_longlong_dec.o(.text) refers to _printf_intcommon.o(.text) for _printf_int_common
    _printf_oct_ll.o(.text) refers to _printf_intcommon.o(.text) for _printf_int_common
    _printf_oct_int.o(.text) refers (Weak) to _printf_truncate.o(.text) for _printf_truncate_unsigned
    _printf_oct_int.o(.text) refers to _printf_intcommon.o(.text) for _printf_int_common
    _printf_oct_int_ll.o(.text) refers to _printf_intcommon.o(.text) for _printf_int_common
    _printf_oct_int_ll.o(.text) refers (Weak) to _printf_truncate.o(.text) for _printf_truncate_unsigned
    _printf_hex_ll.o(.text) refers to _printf_intcommon.o(.text) for _printf_int_common
    _printf_hex_ll.o(.text) refers to _printf_hex_ll.o(.constdata) for .constdata
    _printf_hex_int.o(.text) refers (Weak) to _printf_truncate.o(.text) for _printf_truncate_unsigned
    _printf_hex_int.o(.text) refers to _printf_intcommon.o(.text) for _printf_int_common
    _printf_hex_int.o(.text) refers to _printf_hex_int.o(.constdata) for .constdata
    _printf_hex_int_ll.o(.text) refers to _printf_intcommon.o(.text) for _printf_int_common
    _printf_hex_int_ll.o(.text) refers (Weak) to _printf_truncate.o(.text) for _printf_truncate_unsigned
    _printf_hex_int_ll.o(.text) refers to _printf_hex_int_ll.o(.constdata) for .constdata
    _printf_hex_ptr.o(.text) refers to _printf_intcommon.o(.text) for _printf_int_common
    _printf_hex_ptr.o(.text) refers to _printf_hex_ptr.o(.constdata) for .constdata
    _printf_hex_int_ptr.o(.text) refers to _printf_intcommon.o(.text) for _printf_int_common
    _printf_hex_int_ptr.o(.text) refers (Weak) to _printf_truncate.o(.text) for _printf_truncate_unsigned
    _printf_hex_int_ptr.o(.text) refers to _printf_hex_int_ptr.o(.constdata) for .constdata
    _printf_hex_ll_ptr.o(.text) refers to _printf_intcommon.o(.text) for _printf_int_common
    _printf_hex_ll_ptr.o(.text) refers to _printf_hex_ll_ptr.o(.constdata) for .constdata
    _printf_hex_int_ll_ptr.o(.text) refers to _printf_intcommon.o(.text) for _printf_int_common
    _printf_hex_int_ll_ptr.o(.text) refers (Weak) to _printf_truncate.o(.text) for _printf_truncate_unsigned
    _printf_hex_int_ll_ptr.o(.text) refers to _printf_hex_int_ll_ptr.o(.constdata) for .constdata
    __printf_flags.o(.text) refers to _printf_percent.o(.ARM.Collect$$_printf_percent$$00000000) for _printf_percent
    __printf_flags.o(.text) refers to __printf_flags.o(.constdata) for .constdata
    __printf_ss.o(.text) refers to _printf_percent.o(.ARM.Collect$$_printf_percent$$00000000) for _printf_percent
    __printf_flags_ss.o(.text) refers to _printf_percent.o(.ARM.Collect$$_printf_percent$$00000000) for _printf_percent
    __printf_flags_ss.o(.text) refers to __printf_flags_ss.o(.constdata) for .constdata
    __printf_wp.o(.text) refers to __printf_wp.o(i._is_digit) for _is_digit
    __printf_wp.o(.text) refers to _printf_percent.o(.ARM.Collect$$_printf_percent$$00000000) for _printf_percent
    __printf_flags_wp.o(.text) refers to __printf_wp.o(i._is_digit) for _is_digit
    __printf_flags_wp.o(.text) refers to _printf_percent.o(.ARM.Collect$$_printf_percent$$00000000) for _printf_percent
    __printf_flags_wp.o(.text) refers to __printf_flags_wp.o(.constdata) for .constdata
    __printf_ss_wp.o(.text) refers to __printf_wp.o(i._is_digit) for _is_digit
    __printf_ss_wp.o(.text) refers to _printf_percent.o(.ARM.Collect$$_printf_percent$$00000000) for _printf_percent
    __printf_flags_ss_wp.o(.text) refers to __printf_wp.o(i._is_digit) for _is_digit
    __printf_flags_ss_wp.o(.text) refers to _printf_percent.o(.ARM.Collect$$_printf_percent$$00000000) for _printf_percent
    __printf_flags_ss_wp.o(.text) refers to __printf_flags_ss_wp.o(.constdata) for .constdata
    _printf_c.o(.ARM.Collect$$_printf_percent$$00000013) refers (Weak) to _printf_char.o(.text) for _printf_char
    _printf_s.o(.ARM.Collect$$_printf_percent$$00000014) refers (Weak) to _printf_char.o(.text) for _printf_string
    _printf_n.o(.ARM.Collect$$_printf_percent$$00000001) refers (Weak) to _printf_charcount.o(.text) for _printf_charcount
    _printf_x.o(.ARM.Collect$$_printf_percent$$0000000C) refers (Weak) to _printf_hex_int_ll_ptr.o(.text) for _printf_int_hex
    _printf_p.o(.ARM.Collect$$_printf_percent$$00000002) refers (Weak) to _printf_hex_int_ll_ptr.o(.text) for _printf_hex_ptr
    _printf_o.o(.ARM.Collect$$_printf_percent$$0000000B) refers (Weak) to _printf_oct_int_ll.o(.text) for _printf_int_oct
    _printf_i.o(.ARM.Collect$$_printf_percent$$00000008) refers (Weak) to _printf_dec.o(.text) for _printf_int_dec
    _printf_d.o(.ARM.Collect$$_printf_percent$$00000009) refers (Weak) to _printf_dec.o(.text) for _printf_int_dec
    _printf_u.o(.ARM.Collect$$_printf_percent$$0000000A) refers (Weak) to _printf_dec.o(.text) for _printf_int_dec
    _printf_f.o(.ARM.Collect$$_printf_percent$$00000003) refers (Weak) to printf1.o(x$fpl$printf1) for _printf_fp_dec
    _printf_e.o(.ARM.Collect$$_printf_percent$$00000004) refers (Weak) to printf1.o(x$fpl$printf1) for _printf_fp_dec
    _printf_g.o(.ARM.Collect$$_printf_percent$$00000005) refers (Weak) to printf1.o(x$fpl$printf1) for _printf_fp_dec
    _printf_a.o(.ARM.Collect$$_printf_percent$$00000006) refers (Weak) to printf2.o(x$fpl$printf2) for _printf_fp_hex
    _printf_percent.o(.ARM.Collect$$_printf_percent$$00000000) refers (Special) to _printf_percent_end.o(.ARM.Collect$$_printf_percent$$00000017) for _printf_percent_end
    _printf_lli.o(.ARM.Collect$$_printf_percent$$0000000D) refers (Special) to _printf_ll.o(.ARM.Collect$$_printf_percent$$00000007) for _printf_ll
    _printf_lli.o(.ARM.Collect$$_printf_percent$$0000000D) refers (Weak) to _printf_longlong_dec.o(.text) for _printf_longlong_dec
    _printf_lld.o(.ARM.Collect$$_printf_percent$$0000000E) refers (Special) to _printf_ll.o(.ARM.Collect$$_printf_percent$$00000007) for _printf_ll
    _printf_lld.o(.ARM.Collect$$_printf_percent$$0000000E) refers (Weak) to _printf_longlong_dec.o(.text) for _printf_longlong_dec
    _printf_llu.o(.ARM.Collect$$_printf_percent$$0000000F) refers (Special) to _printf_ll.o(.ARM.Collect$$_printf_percent$$00000007) for _printf_ll
    _printf_llu.o(.ARM.Collect$$_printf_percent$$0000000F) refers (Weak) to _printf_longlong_dec.o(.text) for _printf_longlong_dec
    _printf_lc.o(.ARM.Collect$$_printf_percent$$00000015) refers (Special) to _printf_l.o(.ARM.Collect$$_printf_percent$$00000012) for _printf_l
    _printf_lc.o(.ARM.Collect$$_printf_percent$$00000015) refers (Weak) to _printf_wchar.o(.text) for _printf_wchar
    _printf_ls.o(.ARM.Collect$$_printf_percent$$00000016) refers (Special) to _printf_l.o(.ARM.Collect$$_printf_percent$$00000012) for _printf_l
    _printf_ls.o(.ARM.Collect$$_printf_percent$$00000016) refers (Weak) to _printf_wchar.o(.text) for _printf_wstring
    _printf_llo.o(.ARM.Collect$$_printf_percent$$00000010) refers (Special) to _printf_ll.o(.ARM.Collect$$_printf_percent$$00000007) for _printf_ll
    _printf_llo.o(.ARM.Collect$$_printf_percent$$00000010) refers (Weak) to _printf_oct_int_ll.o(.text) for _printf_ll_oct
    _printf_llx.o(.ARM.Collect$$_printf_percent$$00000011) refers (Special) to _printf_ll.o(.ARM.Collect$$_printf_percent$$00000007) for _printf_ll
    _printf_llx.o(.ARM.Collect$$_printf_percent$$00000011) refers (Weak) to _printf_hex_int_ll_ptr.o(.text) for _printf_ll_hex
    dnaninf.o(x$fpl$dnaninf) refers (Special) to usenofp.o(x$fpl$usenofp) for __I$use$fp
    dretinf.o(x$fpl$dretinf) refers (Special) to usenofp.o(x$fpl$usenofp) for __I$use$fp
    fnaninf.o(x$fpl$fnaninf) refers (Special) to usenofp.o(x$fpl$usenofp) for __I$use$fp
    fretinf.o(x$fpl$fretinf) refers (Special) to usenofp.o(x$fpl$usenofp) for __I$use$fp
    printf1.o(x$fpl$printf1) refers to _printf_fp_dec.o(.text) for _printf_fp_dec_real
    printf2.o(x$fpl$printf2) refers to _printf_fp_hex.o(.text) for _printf_fp_hex_real
    printf2b.o(x$fpl$printf2) refers to _printf_fp_hex.o(.text) for _printf_fp_hex_real
    fpclassifyf.o(i.__ARM_fpclassifyf) refers (Special) to usenofp.o(x$fpl$usenofp) for __I$use$fp
    rredf.o(i.__mathlib_rredf2) refers (Special) to usenofp.o(x$fpl$usenofp) for __I$use$fp
    rredf.o(i.__mathlib_rredf2) refers to rredf.o(.constdata) for .constdata
    rredf.o(.constdata) refers (Special) to usenofp.o(x$fpl$usenofp) for __I$use$fp
    __rtentry2.o(.ARM.Collect$$rtentry$$00000008) refers to boardinit2.o(.text) for _platform_post_stackheap_init
    __rtentry2.o(.ARM.Collect$$rtentry$$0000000A) refers to libinit.o(.ARM.Collect$$libinit$$00000000) for __rt_lib_init
    __rtentry2.o(.ARM.Collect$$rtentry$$0000000B) refers to boardinit3.o(.text) for _platform_post_lib_init
    __rtentry2.o(.ARM.Collect$$rtentry$$0000000D) refers to main.o(i.main) for main
    __rtentry2.o(.ARM.Collect$$rtentry$$0000000D) refers to exit.o(.text) for exit
    __rtentry2.o(.ARM.exidx) refers to __rtentry2.o(.ARM.Collect$$rtentry$$00000001) for .ARM.Collect$$rtentry$$00000001
    __rtentry2.o(.ARM.exidx) refers to __rtentry2.o(.ARM.Collect$$rtentry$$00000008) for .ARM.Collect$$rtentry$$00000008
    __rtentry2.o(.ARM.exidx) refers to __rtentry2.o(.ARM.Collect$$rtentry$$0000000A) for .ARM.Collect$$rtentry$$0000000A
    __rtentry2.o(.ARM.exidx) refers to __rtentry2.o(.ARM.Collect$$rtentry$$0000000B) for .ARM.Collect$$rtentry$$0000000B
    __rtentry2.o(.ARM.exidx) refers to __rtentry2.o(.ARM.Collect$$rtentry$$0000000D) for .ARM.Collect$$rtentry$$0000000D
    __rtentry4.o(.ARM.Collect$$rtentry$$00000004) refers to sys_stackheap_outer.o(.text) for __user_setup_stackheap
    __rtentry4.o(.ARM.exidx) refers to __rtentry4.o(.ARM.Collect$$rtentry$$00000004) for .ARM.Collect$$rtentry$$00000004
    rt_errno_addr.o(.text) refers to rt_errno_addr.o(.bss) for __aeabi_errno_addr_data
    rt_errno_addr_intlibspace.o(.text) refers to libspace.o(.bss) for __libspace_start
    _printf_intcommon.o(.text) refers (Weak) to _printf_pad.o(.text) for _printf_pre_padding
    _printf_intcommon.o(.text) refers (Weak) to _printf_pad.o(.text) for _printf_pre_padding
    _printf_intcommon.o(.text) refers (Weak) to _printf_pad.o(.text) for _printf_post_padding
    _printf_fp_dec.o(.text) refers (Special) to usenofp.o(x$fpl$usenofp) for __I$use$fp
    _printf_fp_dec.o(.text) refers (Special) to lc_numeric_c.o(locale$$code) for _get_lc_numeric
    _printf_fp_dec.o(.text) refers to bigflt0.o(.text) for _btod_etento
    _printf_fp_dec.o(.text) refers to btod.o(CL$$btod_d2e) for _btod_d2e
    _printf_fp_dec.o(.text) refers to btod.o(CL$$btod_ediv) for _btod_ediv
    _printf_fp_dec.o(.text) refers to btod.o(CL$$btod_emul) for _btod_emul
    _printf_fp_dec.o(.text) refers to lludiv10.o(.text) for _ll_udiv10
    _printf_fp_dec.o(.text) refers to fpclassify.o(i.__ARM_fpclassify) for __ARM_fpclassify
    _printf_fp_dec.o(.text) refers to _printf_fp_infnan.o(.text) for _printf_fp_infnan
    _printf_fp_dec.o(.text) refers (Weak) to _printf_pad.o(.text) for _printf_pre_padding
    _printf_fp_dec.o(.text) refers (Weak) to _printf_pad.o(.text) for _printf_pre_padding
    _printf_fp_dec.o(.text) refers to rt_locale_intlibspace.o(.text) for __rt_locale
    _printf_fp_dec.o(.text) refers (Weak) to _printf_pad.o(.text) for _printf_post_padding
    _printf_fp_hex.o(.text) refers (Special) to usenofp.o(x$fpl$usenofp) for __I$use$fp
    _printf_fp_hex.o(.text) refers to fpclassify.o(i.__ARM_fpclassify) for __ARM_fpclassify
    _printf_fp_hex.o(.text) refers to _printf_fp_infnan.o(.text) for _printf_fp_infnan
    _printf_fp_hex.o(.text) refers (Weak) to _printf_pad.o(.text) for _printf_pre_padding
    _printf_fp_hex.o(.text) refers (Weak) to _printf_pad.o(.text) for _printf_pre_padding
    _printf_fp_hex.o(.text) refers (Weak) to _printf_pad.o(.text) for _printf_post_padding
    _printf_fp_hex.o(.text) refers to _printf_fp_hex.o(.constdata) for .constdata
    _printf_fp_hex.o(.constdata) refers (Special) to usenofp.o(x$fpl$usenofp) for __I$use$fp
    _printf_char.o(.text) refers (Weak) to _printf_str.o(.text) for _printf_str
    _printf_wchar.o(.text) refers (Weak) to _printf_wctomb.o(.text) for _printf_wctomb
    _wcrtomb.o(.text) refers to rt_ctype_table.o(.text) for __rt_ctype_table
    libspace.o(.text) refers to libspace.o(.bss) for __libspace_start
    sys_stackheap_outer.o(.text) refers to libspace.o(.text) for __user_perproc_libspace
    sys_stackheap_outer.o(.text) refers to startup_tm4c123.o(.text) for __user_initial_stackheap
    rt_ctype_table.o(.text) refers to rt_locale_intlibspace.o(.text) for __rt_locale
    rt_ctype_table.o(.text) refers to lc_ctype_c.o(locale$$code) for _get_lc_ctype
    rt_locale.o(.text) refers to rt_locale.o(.bss) for __rt_locale_data
    rt_locale_intlibspace.o(.text) refers to libspace.o(.bss) for __libspace_start
    _printf_fp_infnan.o(.text) refers (Weak) to _printf_pad.o(.text) for _printf_pre_padding
    _printf_fp_infnan.o(.text) refers (Weak) to _printf_pad.o(.text) for _printf_post_padding
    bigflt0.o(.text) refers (Special) to usenofp.o(x$fpl$usenofp) for __I$use$fp
    bigflt0.o(.text) refers to btod.o(CL$$btod_emul) for _btod_emul
    bigflt0.o(.text) refers to btod.o(CL$$btod_ediv) for _btod_ediv
    bigflt0.o(.text) refers to bigflt0.o(.constdata) for .constdata
    bigflt0.o(.constdata) refers (Special) to usenofp.o(x$fpl$usenofp) for __I$use$fp
    btod.o(CL$$btod_d2e) refers (Special) to usenofp.o(x$fpl$usenofp) for __I$use$fp
    btod.o(CL$$btod_d2e) refers to btod.o(CL$$btod_d2e_norm_op1) for _d2e_norm_op1
    btod.o(CL$$btod_d2e_norm_op1) refers (Special) to usenofp.o(x$fpl$usenofp) for __I$use$fp
    btod.o(CL$$btod_d2e_norm_op1) refers to btod.o(CL$$btod_d2e_denorm_low) for _d2e_denorm_low
    btod.o(CL$$btod_d2e_denorm_low) refers (Special) to usenofp.o(x$fpl$usenofp) for __I$use$fp
    btod.o(CL$$btod_emul) refers (Special) to usenofp.o(x$fpl$usenofp) for __I$use$fp
    btod.o(CL$$btod_emul) refers to btod.o(CL$$btod_mult_common) for __btod_mult_common
    btod.o(CL$$btod_emul) refers to btod.o(CL$$btod_e2e) for _e2e
    btod.o(CL$$btod_ediv) refers (Special) to usenofp.o(x$fpl$usenofp) for __I$use$fp
    btod.o(CL$$btod_ediv) refers to btod.o(CL$$btod_div_common) for __btod_div_common
    btod.o(CL$$btod_ediv) refers to btod.o(CL$$btod_e2e) for _e2e
    btod.o(CL$$btod_emuld) refers (Special) to usenofp.o(x$fpl$usenofp) for __I$use$fp
    btod.o(CL$$btod_emuld) refers to btod.o(CL$$btod_mult_common) for __btod_mult_common
    btod.o(CL$$btod_emuld) refers to btod.o(CL$$btod_e2d) for _e2d
    btod.o(CL$$btod_edivd) refers (Special) to usenofp.o(x$fpl$usenofp) for __I$use$fp
    btod.o(CL$$btod_edivd) refers to btod.o(CL$$btod_div_common) for __btod_div_common
    btod.o(CL$$btod_edivd) refers to btod.o(CL$$btod_e2d) for _e2d
    btod.o(CL$$btod_e2e) refers (Special) to usenofp.o(x$fpl$usenofp) for __I$use$fp
    btod.o(CL$$btod_e2d) refers (Special) to usenofp.o(x$fpl$usenofp) for __I$use$fp
    btod.o(CL$$btod_e2d) refers to btod.o(CL$$btod_e2e) for _e2e
    btod.o(CL$$btod_mult_common) refers (Special) to usenofp.o(x$fpl$usenofp) for __I$use$fp
    btod.o(CL$$btod_div_common) refers (Special) to usenofp.o(x$fpl$usenofp) for __I$use$fp
    lc_numeric_c.o(locale$$data) refers (Special) to libinit2.o(.ARM.Collect$$libinit$$00000016) for __rt_lib_init_lc_numeric_2
    lc_numeric_c.o(locale$$code) refers (Special) to libinit2.o(.ARM.Collect$$libinit$$00000016) for __rt_lib_init_lc_numeric_2
    lc_numeric_c.o(locale$$code) refers to strcmpv7m.o(.text) for strcmp
    lc_numeric_c.o(locale$$code) refers to lc_numeric_c.o(locale$$data) for __lcnum_c_name
    exit.o(.text) refers to rtexit.o(.ARM.Collect$$rtexit$$00000000) for __rt_exit
    libinit.o(.ARM.Collect$$libinit$$00000000) refers (Special) to libinit2.o(.ARM.Collect$$libinit$$0000002E) for __rt_lib_init_alloca_1
    libinit.o(.ARM.Collect$$libinit$$00000000) refers (Special) to libinit2.o(.ARM.Collect$$libinit$$0000002C) for __rt_lib_init_argv_1
    libinit.o(.ARM.Collect$$libinit$$00000000) refers (Special) to libinit2.o(.ARM.Collect$$libinit$$0000001B) for __rt_lib_init_atexit_1
    libinit.o(.ARM.Collect$$libinit$$00000000) refers (Special) to libinit2.o(.ARM.Collect$$libinit$$00000021) for __rt_lib_init_clock_1
    libinit.o(.ARM.Collect$$libinit$$00000000) refers (Special) to libinit2.o(.ARM.Collect$$libinit$$00000032) for __rt_lib_init_cpp_1
    libinit.o(.ARM.Collect$$libinit$$00000000) refers (Special) to libinit2.o(.ARM.Collect$$libinit$$00000030) for __rt_lib_init_exceptions_1
    libinit.o(.ARM.Collect$$libinit$$00000000) refers (Special) to libinit2.o(.ARM.Collect$$libinit$$00000001) for __rt_lib_init_fp_1
    libinit.o(.ARM.Collect$$libinit$$00000000) refers (Special) to libinit2.o(.ARM.Collect$$libinit$$0000001F) for __rt_lib_init_fp_trap_1
    libinit.o(.ARM.Collect$$libinit$$00000000) refers (Special) to libinit2.o(.ARM.Collect$$libinit$$00000023) for __rt_lib_init_getenv_1
    libinit.o(.ARM.Collect$$libinit$$00000000) refers (Special) to libinit2.o(.ARM.Collect$$libinit$$0000000A) for __rt_lib_init_heap_1
    libinit.o(.ARM.Collect$$libinit$$00000000) refers (Special) to libinit2.o(.ARM.Collect$$libinit$$00000011) for __rt_lib_init_lc_collate_1
    libinit.o(.ARM.Collect$$libinit$$00000000) refers (Special) to libinit2.o(.ARM.Collect$$libinit$$00000013) for __rt_lib_init_lc_ctype_1
    libinit.o(.ARM.Collect$$libinit$$00000000) refers (Special) to libinit2.o(.ARM.Collect$$libinit$$00000015) for __rt_lib_init_lc_monetary_1
    libinit.o(.ARM.Collect$$libinit$$00000000) refers (Special) to libinit2.o(.ARM.Collect$$libinit$$00000017) for __rt_lib_init_lc_numeric_1
    libinit.o(.ARM.Collect$$libinit$$00000000) refers (Special) to libinit2.o(.ARM.Collect$$libinit$$00000019) for __rt_lib_init_lc_time_1
    libinit.o(.ARM.Collect$$libinit$$00000000) refers (Special) to libinit2.o(.ARM.Collect$$libinit$$00000004) for __rt_lib_init_preinit_1
    libinit.o(.ARM.Collect$$libinit$$00000000) refers (Special) to libinit2.o(.ARM.Collect$$libinit$$0000000E) for __rt_lib_init_rand_1
    libinit.o(.ARM.Collect$$libinit$$00000000) refers (Special) to libinit2.o(.ARM.Collect$$libinit$$00000033) for __rt_lib_init_return
    libinit.o(.ARM.Collect$$libinit$$00000000) refers (Special) to libinit2.o(.ARM.Collect$$libinit$$0000001D) for __rt_lib_init_signal_1
    libinit.o(.ARM.Collect$$libinit$$00000000) refers (Special) to libinit2.o(.ARM.Collect$$libinit$$00000025) for __rt_lib_init_stdio_1
    libinit.o(.ARM.Collect$$libinit$$00000000) refers (Special) to libinit2.o(.ARM.Collect$$libinit$$0000000C) for __rt_lib_init_user_alloc_1
    istatus.o(x$fpl$ieeestatus) refers (Special) to usenofp.o(x$fpl$usenofp) for __I$use$fp
    fpclassify.o(i.__ARM_fpclassify) refers (Special) to usenofp.o(x$fpl$usenofp) for __I$use$fp
    rtexit.o(.ARM.Collect$$rtexit$$00000000) refers (Special) to rtexit2.o(.ARM.Collect$$rtexit$$00000004) for __rt_exit_exit
    rtexit.o(.ARM.Collect$$rtexit$$00000000) refers (Special) to rtexit2.o(.ARM.Collect$$rtexit$$00000003) for __rt_exit_ls
    rtexit.o(.ARM.Collect$$rtexit$$00000000) refers (Special) to rtexit2.o(.ARM.Collect$$rtexit$$00000002) for __rt_exit_prels_1
    rtexit.o(.ARM.exidx) refers (Special) to rtexit2.o(.ARM.Collect$$rtexit$$00000004) for __rt_exit_exit
    rtexit.o(.ARM.exidx) refers (Special) to rtexit2.o(.ARM.Collect$$rtexit$$00000003) for __rt_exit_ls
    rtexit.o(.ARM.exidx) refers (Special) to rtexit2.o(.ARM.Collect$$rtexit$$00000002) for __rt_exit_prels_1
    rtexit.o(.ARM.exidx) refers to rtexit.o(.ARM.Collect$$rtexit$$00000000) for .ARM.Collect$$rtexit$$00000000
    lc_ctype_c.o(locale$$data) refers (Special) to libinit2.o(.ARM.Collect$$libinit$$00000012) for __rt_lib_init_lc_ctype_2
    lc_ctype_c.o(locale$$code) refers (Special) to libinit2.o(.ARM.Collect$$libinit$$00000012) for __rt_lib_init_lc_ctype_2
    lc_ctype_c.o(locale$$code) refers to strcmpv7m.o(.text) for strcmp
    lc_ctype_c.o(locale$$code) refers to lc_ctype_c.o(locale$$data) for __lcctype_c_name
    libinit2.o(.ARM.Collect$$libinit$$00000001) refers to fpinit.o(x$fpl$fpinit) for _fp_init
    libinit2.o(.ARM.Collect$$libinit$$0000000F) refers (Weak) to rt_locale_intlibspace.o(.text) for __rt_locale
    libinit2.o(.ARM.Collect$$libinit$$00000010) refers to libinit2.o(.ARM.Collect$$libinit$$0000000F) for .ARM.Collect$$libinit$$0000000F
    libinit2.o(.ARM.Collect$$libinit$$00000012) refers to libinit2.o(.ARM.Collect$$libinit$$0000000F) for .ARM.Collect$$libinit$$0000000F
    libinit2.o(.ARM.Collect$$libinit$$00000012) refers (Weak) to lc_ctype_c.o(locale$$code) for _get_lc_ctype
    libinit2.o(.ARM.Collect$$libinit$$00000014) refers to libinit2.o(.ARM.Collect$$libinit$$0000000F) for .ARM.Collect$$libinit$$0000000F
    libinit2.o(.ARM.Collect$$libinit$$00000016) refers to libinit2.o(.ARM.Collect$$libinit$$0000000F) for .ARM.Collect$$libinit$$0000000F
    libinit2.o(.ARM.Collect$$libinit$$00000016) refers (Weak) to lc_numeric_c.o(locale$$code) for _get_lc_numeric
    libinit2.o(.ARM.Collect$$libinit$$00000018) refers to libinit2.o(.ARM.Collect$$libinit$$0000000F) for .ARM.Collect$$libinit$$0000000F
    libinit2.o(.ARM.Collect$$libinit$$00000026) refers to argv_veneer.o(.emb_text) for __ARM_argv_veneer
    libinit2.o(.ARM.Collect$$libinit$$00000027) refers to argv_veneer.o(.emb_text) for __ARM_argv_veneer
    rtexit2.o(.ARM.Collect$$rtexit$$00000003) refers to libshutdown.o(.ARM.Collect$$libshutdown$$00000000) for __rt_lib_shutdown
    rtexit2.o(.ARM.Collect$$rtexit$$00000004) refers to sys_exit.o(.text) for _sys_exit
    rtexit2.o(.ARM.exidx) refers to rtexit2.o(.ARM.Collect$$rtexit$$00000001) for .ARM.Collect$$rtexit$$00000001
    rtexit2.o(.ARM.exidx) refers to rtexit2.o(.ARM.Collect$$rtexit$$00000003) for .ARM.Collect$$rtexit$$00000003
    rtexit2.o(.ARM.exidx) refers to rtexit2.o(.ARM.Collect$$rtexit$$00000004) for .ARM.Collect$$rtexit$$00000004
    argv_veneer.o(.emb_text) refers to no_argv.o(.text) for __ARM_get_argv
    sys_exit.o(.text) refers (Special) to use_no_semi.o(.text) for __I$use$semihosting
    sys_exit.o(.text) refers (Special) to indicate_semi.o(.text) for __semihosting_library_function
    _get_argv_nomalloc.o(.text) refers (Special) to hrguard.o(.text) for __heap_region$guard
    _get_argv_nomalloc.o(.text) refers to defsig_rtmem_outer.o(.text) for __rt_SIGRTMEM
    _get_argv_nomalloc.o(.text) refers to sys_command.o(.text) for _sys_command_string
    libshutdown.o(.ARM.Collect$$libshutdown$$00000000) refers (Special) to libshutdown2.o(.ARM.Collect$$libshutdown$$00000002) for __rt_lib_shutdown_cpp_1
    libshutdown.o(.ARM.Collect$$libshutdown$$00000000) refers (Special) to libshutdown2.o(.ARM.Collect$$libshutdown$$00000007) for __rt_lib_shutdown_fp_trap_1
    libshutdown.o(.ARM.Collect$$libshutdown$$00000000) refers (Special) to libshutdown2.o(.ARM.Collect$$libshutdown$$0000000F) for __rt_lib_shutdown_heap_1
    libshutdown.o(.ARM.Collect$$libshutdown$$00000000) refers (Special) to libshutdown2.o(.ARM.Collect$$libshutdown$$00000010) for __rt_lib_shutdown_return
    libshutdown.o(.ARM.Collect$$libshutdown$$00000000) refers (Special) to libshutdown2.o(.ARM.Collect$$libshutdown$$0000000A) for __rt_lib_shutdown_signal_1
    libshutdown.o(.ARM.Collect$$libshutdown$$00000000) refers (Special) to libshutdown2.o(.ARM.Collect$$libshutdown$$00000004) for __rt_lib_shutdown_stdio_1
    libshutdown.o(.ARM.Collect$$libshutdown$$00000000) refers (Special) to libshutdown2.o(.ARM.Collect$$libshutdown$$0000000C) for __rt_lib_shutdown_user_alloc_1
    sys_command.o(.text) refers (Special) to use_no_semi.o(.text) for __I$use$semihosting
    sys_command.o(.text) refers (Special) to indicate_semi.o(.text) for __semihosting_library_function
    defsig_rtmem_outer.o(.text) refers to defsig_rtmem_inner.o(.text) for __rt_SIGRTMEM_inner
    defsig_rtmem_outer.o(.text) refers to defsig_exit.o(.text) for __sig_exit
    defsig_rtmem_formal.o(.text) refers to rt_raise.o(.text) for __rt_raise
    rt_raise.o(.text) refers to __raise.o(.text) for __raise
    rt_raise.o(.text) refers to sys_exit.o(.text) for _sys_exit
    defsig_exit.o(.text) refers to sys_exit.o(.text) for _sys_exit
    defsig_rtmem_inner.o(.text) refers to defsig_general.o(.text) for __default_signal_display
    __raise.o(.text) refers to defsig.o(CL$$defsig) for __default_signal_handler
    defsig_general.o(.text) refers to sys_wrch.o(.text) for _ttywrch
    sys_wrch.o(.text) refers (Special) to use_no_semi.o(.text) for __I$use$semihosting
    sys_wrch.o(.text) refers (Special) to indicate_semi.o(.text) for __semihosting_library_function
    defsig.o(CL$$defsig) refers to defsig_rtmem_inner.o(.text) for __rt_SIGRTMEM_inner
    defsig_abrt_inner.o(.text) refers to defsig_general.o(.text) for __default_signal_display
    defsig_fpe_inner.o(.text) refers to defsig_general.o(.text) for __default_signal_display
    defsig_rtred_inner.o(.text) refers to defsig_general.o(.text) for __default_signal_display
    defsig_stak_inner.o(.text) refers to defsig_general.o(.text) for __default_signal_display
    defsig_pvfn_inner.o(.text) refers to defsig_general.o(.text) for __default_signal_display
    defsig_cppl_inner.o(.text) refers to defsig_general.o(.text) for __default_signal_display
    defsig_segv_inner.o(.text) refers to defsig_general.o(.text) for __default_signal_display
    defsig_other.o(.text) refers to defsig_general.o(.text) for __default_signal_display
    i2cm_drv.o(i.I2CMWrite) refers to i2cm_drv.o(i.I2CMCommand) for I2CMCommand
    i2cm_drv.o(i.I2CMRead) refers to i2cm_drv.o(i.I2CMCommand) for I2CMCommand
    i2cm_drv.o(i.I2CMWriteBatched) refers to i2cm_drv.o(i.I2CMCommand) for I2CMCommand
    i2cm_drv.o(i.I2CMReadBatched) refers to i2cm_drv.o(i.I2CMCommand) for I2CMCommand
    i2cm_drv.o(i.I2CMReadModifyWrite16BE) refers to i2cm_drv.o(i.I2CMReadModifyWrite16LE) for I2CMReadModifyWrite16LE


==============================================================================

Removing Unused input sections from the image.

    Removing padcontroller.o(i.init_padController), (2 bytes).
    Removing uartstdio.o(i.UARTStdioInit), (30 bytes).
    Removing uartstdio.o(i.UARTStdioInitExpClk), (30 bytes).
    Removing uartstdio.o(i.UARTgetc), (24 bytes).
    Removing uartstdio.o(i.UARTgets), (156 bytes).
    Removing adc.o(i.ADCBusy), (10 bytes).
    Removing adc.o(i.ADCClockConfigGet), (30 bytes).
    Removing adc.o(i.ADCClockConfigSet), (24 bytes).
    Removing adc.o(i.ADCComparatorConfigure), (10 bytes).
    Removing adc.o(i.ADCComparatorIntClear), (4 bytes).
    Removing adc.o(i.ADCComparatorIntDisable), (14 bytes).
    Removing adc.o(i.ADCComparatorIntEnable), (14 bytes).
    Removing adc.o(i.ADCComparatorIntStatus), (6 bytes).
    Removing adc.o(i.ADCComparatorRegionSet), (16 bytes).
    Removing adc.o(i.ADCComparatorReset), (34 bytes).
    Removing adc.o(i.ADCHardwareOversampleConfigure), (18 bytes).
    Removing adc.o(i.ADCIntClear), (8 bytes).
    Removing adc.o(i.ADCIntClearEx), (4 bytes).
    Removing adc.o(i.ADCIntDisable), (12 bytes).
    Removing adc.o(i.ADCIntDisableEx), (8 bytes).
    Removing adc.o(i.ADCIntEnable), (18 bytes).
    Removing adc.o(i.ADCIntEnableEx), (8 bytes).
    Removing adc.o(i.ADCIntRegister), (38 bytes).
    Removing adc.o(i.ADCIntStatus), (54 bytes).
    Removing adc.o(i.ADCIntStatusEx), (22 bytes).
    Removing adc.o(i.ADCIntUnregister), (30 bytes).
    Removing adc.o(i.ADCPhaseDelayGet), (6 bytes).
    Removing adc.o(i.ADCPhaseDelaySet), (4 bytes).
    Removing adc.o(i.ADCProcessorTrigger), (24 bytes).
    Removing adc.o(i.ADCReferenceGet), (10 bytes).
    Removing adc.o(i.ADCReferenceSet), (12 bytes).
    Removing adc.o(i.ADCSequenceConfigure), (62 bytes).
    Removing adc.o(i.ADCSequenceDMADisable), (14 bytes).
    Removing adc.o(i.ADCSequenceDMAEnable), (14 bytes).
    Removing adc.o(i.ADCSequenceDataGet), (34 bytes).
    Removing adc.o(i.ADCSequenceDisable), (12 bytes).
    Removing adc.o(i.ADCSequenceEnable), (12 bytes).
    Removing adc.o(i.ADCSequenceOverflow), (12 bytes).
    Removing adc.o(i.ADCSequenceOverflowClear), (8 bytes).
    Removing adc.o(i.ADCSequenceStepConfigure), (136 bytes).
    Removing adc.o(i.ADCSequenceUnderflow), (12 bytes).
    Removing adc.o(i.ADCSequenceUnderflowClear), (8 bytes).
    Removing adc.o(i.ADCSoftwareOversampleConfigure), (28 bytes).
    Removing adc.o(i.ADCSoftwareOversampleDataGet), (60 bytes).
    Removing adc.o(i.ADCSoftwareOversampleStepConfigure), (116 bytes).
    Removing adc.o(i._ADCIntNumberGet), (96 bytes).
    Removing adc.o(.data), (3 bytes).
    Removing aes.o(i.AESAuthLengthSet), (4 bytes).
    Removing aes.o(i.AESConfigSet), (16 bytes).
    Removing aes.o(i.AESDMADisable), (12 bytes).
    Removing aes.o(i.AESDMAEnable), (12 bytes).
    Removing aes.o(i.AESDataAuth), (58 bytes).
    Removing aes.o(i.AESDataProcess), (68 bytes).
    Removing aes.o(i.AESDataProcessAuth), (108 bytes).
    Removing aes.o(i.AESDataRead), (30 bytes).
    Removing aes.o(i.AESDataReadNonBlocking), (34 bytes).
    Removing aes.o(i.AESDataWrite), (30 bytes).
    Removing aes.o(i.AESDataWriteNonBlocking), (34 bytes).
    Removing aes.o(i.AESIVRead), (30 bytes).
    Removing aes.o(i.AESIVSet), (18 bytes).
    Removing aes.o(i.AESIntClear), (28 bytes).
    Removing aes.o(i.AESIntDisable), (48 bytes).
    Removing aes.o(i.AESIntEnable), (48 bytes).
    Removing aes.o(i.AESIntRegister), (22 bytes).
    Removing aes.o(i.AESIntStatus), (80 bytes).
    Removing aes.o(i.AESIntUnregister), (18 bytes).
    Removing aes.o(i.AESKey1Set), (42 bytes).
    Removing aes.o(i.AESKey2Set), (42 bytes).
    Removing aes.o(i.AESKey3Set), (18 bytes).
    Removing aes.o(i.AESLengthSet), (6 bytes).
    Removing aes.o(i.AESReset), (28 bytes).
    Removing aes.o(i.AESTagRead), (30 bytes).
    Removing can.o(i.CANBitRateSet), (120 bytes).
    Removing can.o(i.CANBitTimingGet), (48 bytes).
    Removing can.o(i.CANBitTimingSet), (88 bytes).
    Removing can.o(i.CANDisable), (10 bytes).
    Removing can.o(i.CANEnable), (10 bytes).
    Removing can.o(i.CANErrCntrGet), (32 bytes).
    Removing can.o(i.CANInit), (82 bytes).
    Removing can.o(i.CANIntClear), (46 bytes).
    Removing can.o(i.CANIntDisable), (8 bytes).
    Removing can.o(i.CANIntEnable), (8 bytes).
    Removing can.o(i.CANIntRegister), (30 bytes).
    Removing can.o(i.CANIntStatus), (38 bytes).
    Removing can.o(i.CANIntUnregister), (26 bytes).
    Removing can.o(i.CANMessageClear), (30 bytes).
    Removing can.o(i.CANMessageGet), (382 bytes).
    Removing can.o(i.CANMessageSet), (384 bytes).
    Removing can.o(i.CANRetryGet), (18 bytes).
    Removing can.o(i.CANRetrySet), (20 bytes).
    Removing can.o(i.CANStatusGet), (78 bytes).
    Removing can.o(i._CANDataRegRead), (36 bytes).
    Removing can.o(i._CANDataRegWrite), (36 bytes).
    Removing can.o(i._CANIntNumberGet), (96 bytes).
    Removing can.o(.constdata), (32 bytes).
    Removing comp.o(i.ComparatorConfigure), (8 bytes).
    Removing comp.o(i.ComparatorIntClear), (8 bytes).
    Removing comp.o(i.ComparatorIntDisable), (12 bytes).
    Removing comp.o(i.ComparatorIntEnable), (12 bytes).
    Removing comp.o(i.ComparatorIntRegister), (38 bytes).
    Removing comp.o(i.ComparatorIntStatus), (24 bytes).
    Removing comp.o(i.ComparatorIntUnregister), (34 bytes).
    Removing comp.o(i.ComparatorRefSet), (4 bytes).
    Removing comp.o(i.ComparatorValueGet), (22 bytes).
    Removing cpu.o(.emb_text), (38 bytes).
    Removing crc.o(i.CRCConfigSet), (6 bytes).
    Removing crc.o(i.CRCDataProcess), (68 bytes).
    Removing crc.o(i.CRCDataWrite), (6 bytes).
    Removing crc.o(i.CRCResultRead), (16 bytes).
    Removing crc.o(i.CRCSeedSet), (6 bytes).
    Removing des.o(i.DESConfigSet), (12 bytes).
    Removing des.o(i.DESDMADisable), (8 bytes).
    Removing des.o(i.DESDMAEnable), (8 bytes).
    Removing des.o(i.DESDataProcess), (76 bytes).
    Removing des.o(i.DESDataRead), (32 bytes).
    Removing des.o(i.DESDataReadNonBlocking), (36 bytes).
    Removing des.o(i.DESDataWrite), (28 bytes).
    Removing des.o(i.DESDataWriteNonBlocking), (32 bytes).
    Removing des.o(i.DESIVSet), (26 bytes).
    Removing des.o(i.DESIntClear), (12 bytes).
    Removing des.o(i.DESIntDisable), (28 bytes).
    Removing des.o(i.DESIntEnable), (28 bytes).
    Removing des.o(i.DESIntRegister), (22 bytes).
    Removing des.o(i.DESIntStatus), (38 bytes).
    Removing des.o(i.DESIntUnregister), (18 bytes).
    Removing des.o(i.DESKeySet), (34 bytes).
    Removing des.o(i.DESLengthSet), (4 bytes).
    Removing des.o(i.DESReset), (22 bytes).
    Removing eeprom.o(i.EEPROMBlockCountGet), (16 bytes).
    Removing eeprom.o(i.EEPROMBlockHide), (16 bytes).
    Removing eeprom.o(i.EEPROMBlockLock), (24 bytes).
    Removing eeprom.o(i.EEPROMBlockPasswordSet), (52 bytes).
    Removing eeprom.o(i.EEPROMBlockProtectGet), (16 bytes).
    Removing eeprom.o(i.EEPROMBlockProtectSet), (32 bytes).
    Removing eeprom.o(i.EEPROMBlockUnlock), (48 bytes).
    Removing eeprom.o(i.EEPROMInit), (68 bytes).
    Removing eeprom.o(i.EEPROMIntClear), (56 bytes).
    Removing eeprom.o(i.EEPROMIntDisable), (36 bytes).
    Removing eeprom.o(i.EEPROMIntEnable), (36 bytes).
    Removing eeprom.o(i.EEPROMIntStatus), (48 bytes).
    Removing eeprom.o(i.EEPROMMassErase), (88 bytes).
    Removing eeprom.o(i.EEPROMProgram), (208 bytes).
    Removing eeprom.o(i.EEPROMProgramNonBlocking), (72 bytes).
    Removing eeprom.o(i.EEPROMRead), (56 bytes).
    Removing eeprom.o(i.EEPROMSizeGet), (16 bytes).
    Removing eeprom.o(i.EEPROMStatusGet), (12 bytes).
    Removing eeprom.o(i._EEPROMSectorMaskClear), (56 bytes).
    Removing eeprom.o(i._EEPROMSectorMaskSet), (64 bytes).
    Removing eeprom.o(i._EEPROMWaitForDone), (20 bytes).
    Removing emac.o(i.EMACAddrFilterGet), (14 bytes).
    Removing emac.o(i.EMACAddrFilterSet), (32 bytes).
    Removing emac.o(i.EMACAddrGet), (38 bytes).
    Removing emac.o(i.EMACAddrSet), (56 bytes).
    Removing emac.o(i.EMACConfigGet), (64 bytes).
    Removing emac.o(i.EMACConfigSet), (52 bytes).
    Removing emac.o(i.EMACDMAStateGet), (16 bytes).
    Removing emac.o(i.EMACFrameFilterGet), (16 bytes).
    Removing emac.o(i.EMACFrameFilterSet), (16 bytes).
    Removing emac.o(i.EMACHashFilterBitCalculate), (48 bytes).
    Removing emac.o(i.EMACHashFilterGet), (10 bytes).
    Removing emac.o(i.EMACHashFilterSet), (6 bytes).
    Removing emac.o(i.EMACInit), (168 bytes).
    Removing emac.o(i.EMACIntClear), (58 bytes).
    Removing emac.o(i.EMACIntDisable), (60 bytes).
    Removing emac.o(i.EMACIntEnable), (64 bytes).
    Removing emac.o(i.EMACIntRegister), (22 bytes).
    Removing emac.o(i.EMACIntStatus), (52 bytes).
    Removing emac.o(i.EMACIntUnregister), (18 bytes).
    Removing emac.o(i.EMACNumAddrGet), (6 bytes).
    Removing emac.o(i.EMACPHYConfigSet), (108 bytes).
    Removing emac.o(i.EMACPHYExtendedRead), (64 bytes).
    Removing emac.o(i.EMACPHYExtendedWrite), (68 bytes).
    Removing emac.o(i.EMACPHYPowerOff), (38 bytes).
    Removing emac.o(i.EMACPHYPowerOn), (38 bytes).
    Removing emac.o(i.EMACPHYRead), (50 bytes).
    Removing emac.o(i.EMACPHYWrite), (48 bytes).
    Removing emac.o(i.EMACPowerManagementControlGet), (12 bytes).
    Removing emac.o(i.EMACPowerManagementControlSet), (16 bytes).
    Removing emac.o(i.EMACPowerManagementStatusGet), (10 bytes).
    Removing emac.o(i.EMACRemoteWakeUpFrameFilterGet), (32 bytes).
    Removing emac.o(i.EMACRemoteWakeUpFrameFilterSet), (32 bytes).
    Removing emac.o(i.EMACReset), (28 bytes).
    Removing emac.o(i.EMACRxDMACurrentBufferGet), (8 bytes).
    Removing emac.o(i.EMACRxDMACurrentDescriptorGet), (8 bytes).
    Removing emac.o(i.EMACRxDMADescriptorListGet), (8 bytes).
    Removing emac.o(i.EMACRxDMADescriptorListSet), (6 bytes).
    Removing emac.o(i.EMACRxDMAPollDemand), (8 bytes).
    Removing emac.o(i.EMACRxDisable), (22 bytes).
    Removing emac.o(i.EMACRxEnable), (22 bytes).
    Removing emac.o(i.EMACRxWatchdogTimerSet), (6 bytes).
    Removing emac.o(i.EMACStatusGet), (6 bytes).
    Removing emac.o(i.EMACTimestampAddendSet), (32 bytes).
    Removing emac.o(i.EMACTimestampConfigGet), (16 bytes).
    Removing emac.o(i.EMACTimestampConfigSet), (24 bytes).
    Removing emac.o(i.EMACTimestampDisable), (14 bytes).
    Removing emac.o(i.EMACTimestampEnable), (36 bytes).
    Removing emac.o(i.EMACTimestampIntStatus), (8 bytes).
    Removing emac.o(i.EMACTimestampPPSCommand), (24 bytes).
    Removing emac.o(i.EMACTimestampPPSCommandModeSet), (24 bytes).
    Removing emac.o(i.EMACTimestampPPSPeriodSet), (10 bytes).
    Removing emac.o(i.EMACTimestampPPSSimpleModeSet), (20 bytes).
    Removing emac.o(i.EMACTimestampSysTimeGet), (28 bytes).
    Removing emac.o(i.EMACTimestampSysTimeSet), (36 bytes).
    Removing emac.o(i.EMACTimestampSysTimeUpdate), (50 bytes).
    Removing emac.o(i.EMACTimestampTargetIntDisable), (14 bytes).
    Removing emac.o(i.EMACTimestampTargetIntEnable), (14 bytes).
    Removing emac.o(i.EMACTimestampTargetSet), (24 bytes).
    Removing emac.o(i.EMACTxDMACurrentBufferGet), (8 bytes).
    Removing emac.o(i.EMACTxDMACurrentDescriptorGet), (8 bytes).
    Removing emac.o(i.EMACTxDMADescriptorListGet), (8 bytes).
    Removing emac.o(i.EMACTxDMADescriptorListSet), (6 bytes).
    Removing emac.o(i.EMACTxDMAPollDemand), (8 bytes).
    Removing emac.o(i.EMACTxDisable), (22 bytes).
    Removing emac.o(i.EMACTxEnable), (22 bytes).
    Removing emac.o(i.EMACTxFlush), (36 bytes).
    Removing emac.o(i.EMACVLANHashFilterBitCalculate), (42 bytes).
    Removing emac.o(i.EMACVLANHashFilterGet), (8 bytes).
    Removing emac.o(i.EMACVLANHashFilterSet), (6 bytes).
    Removing emac.o(i.EMACVLANRxConfigGet), (12 bytes).
    Removing emac.o(i.EMACVLANRxConfigSet), (8 bytes).
    Removing emac.o(i.EMACVLANTxConfigGet), (14 bytes).
    Removing emac.o(i.EMACVLANTxConfigSet), (10 bytes).
    Removing emac.o(.constdata), (24 bytes).
    Removing epi.o(i.EPIAddressMapSet), (4 bytes).
    Removing epi.o(i.EPIConfigGPModeSet), (14 bytes).
    Removing epi.o(i.EPIConfigHB16CSSet), (48 bytes).
    Removing epi.o(i.EPIConfigHB16Set), (38 bytes).
    Removing epi.o(i.EPIConfigHB16TimingSet), (12 bytes).
    Removing epi.o(i.EPIConfigHB8CSSet), (48 bytes).
    Removing epi.o(i.EPIConfigHB8Set), (38 bytes).
    Removing epi.o(i.EPIConfigHB8TimingSet), (12 bytes).
    Removing epi.o(i.EPIConfigSDRAMSet), (16 bytes).
    Removing epi.o(i.EPIDMATxCount), (8 bytes).
    Removing epi.o(i.EPIDividerCSSet), (64 bytes).
    Removing epi.o(i.EPIDividerSet), (4 bytes).
    Removing epi.o(i.EPIFIFOConfig), (6 bytes).
    Removing epi.o(i.EPIIntDisable), (12 bytes).
    Removing epi.o(i.EPIIntEnable), (12 bytes).
    Removing epi.o(i.EPIIntErrorClear), (6 bytes).
    Removing epi.o(i.EPIIntErrorStatus), (8 bytes).
    Removing epi.o(i.EPIIntRegister), (30 bytes).
    Removing epi.o(i.EPIIntStatus), (16 bytes).
    Removing epi.o(i.EPIIntUnregister), (26 bytes).
    Removing epi.o(i.EPIModeSet), (4 bytes).
    Removing epi.o(i.EPINonBlockingReadAvail), (6 bytes).
    Removing epi.o(i.EPINonBlockingReadConfigure), (16 bytes).
    Removing epi.o(i.EPINonBlockingReadCount), (12 bytes).
    Removing epi.o(i.EPINonBlockingReadGet16), (30 bytes).
    Removing epi.o(i.EPINonBlockingReadGet32), (30 bytes).
    Removing epi.o(i.EPINonBlockingReadGet8), (30 bytes).
    Removing epi.o(i.EPINonBlockingReadStart), (12 bytes).
    Removing epi.o(i.EPINonBlockingReadStop), (14 bytes).
    Removing epi.o(i.EPIPSRAMConfigRegGet), (46 bytes).
    Removing epi.o(i.EPIPSRAMConfigRegGetNonBlocking), (52 bytes).
    Removing epi.o(i.EPIPSRAMConfigRegRead), (36 bytes).
    Removing epi.o(i.EPIPSRAMConfigRegSet), (44 bytes).
    Removing epi.o(i.EPIWriteFIFOCountGet), (8 bytes).
    Removing epi.o(i._EPIIntNumberGet), (36 bytes).
    Removing flash.o(i.FlashErase), (64 bytes).
    Removing flash.o(i.FlashIntClear), (12 bytes).
    Removing flash.o(i.FlashIntDisable), (16 bytes).
    Removing flash.o(i.FlashIntEnable), (16 bytes).
    Removing flash.o(i.FlashIntRegister), (20 bytes).
    Removing flash.o(i.FlashIntStatus), (20 bytes).
    Removing flash.o(i.FlashIntUnregister), (16 bytes).
    Removing flash.o(i.FlashProgram), (112 bytes).
    Removing flash.o(i.FlashProtectGet), (88 bytes).
    Removing flash.o(i.FlashProtectSave), (48 bytes).
    Removing flash.o(i.FlashProtectSet), (144 bytes).
    Removing flash.o(i.FlashUserGet), (28 bytes).
    Removing flash.o(i.FlashUserSave), (64 bytes).
    Removing flash.o(i.FlashUserSet), (24 bytes).
    Removing flash.o(.constdata), (128 bytes).
    Removing fpu.o(i.FPUDisable), (20 bytes).
    Removing fpu.o(i.FPUEnable), (20 bytes).
    Removing fpu.o(i.FPUFlushToZeroModeSet), (20 bytes).
    Removing fpu.o(i.FPUHalfPrecisionModeSet), (20 bytes).
    Removing fpu.o(i.FPULazyStackingEnable), (20 bytes).
    Removing fpu.o(i.FPUNaNModeSet), (20 bytes).
    Removing fpu.o(i.FPURoundingModeSet), (20 bytes).
    Removing fpu.o(i.FPUStackingDisable), (20 bytes).
    Removing fpu.o(i.FPUStackingEnable), (24 bytes).
    Removing gpio.o(i.GPIOADCTriggerDisable), (12 bytes).
    Removing gpio.o(i.GPIOADCTriggerEnable), (12 bytes).
    Removing gpio.o(i.GPIODMATriggerDisable), (12 bytes).
    Removing gpio.o(i.GPIODMATriggerEnable), (12 bytes).
    Removing gpio.o(i.GPIODirModeGet), (46 bytes).
    Removing gpio.o(i.GPIOIntClear), (6 bytes).
    Removing gpio.o(i.GPIOIntDisable), (12 bytes).
    Removing gpio.o(i.GPIOIntEnable), (12 bytes).
    Removing gpio.o(i.GPIOIntRegister), (30 bytes).
    Removing gpio.o(i.GPIOIntStatus), (16 bytes).
    Removing gpio.o(i.GPIOIntTypeGet), (84 bytes).
    Removing gpio.o(i.GPIOIntTypeSet), (102 bytes).
    Removing gpio.o(i.GPIOIntUnregister), (26 bytes).
    Removing gpio.o(i.GPIOPadConfigGet), (206 bytes).
    Removing gpio.o(i.GPIOPinRead), (12 bytes).
    Removing gpio.o(i.GPIOPinTypeADC), (30 bytes).
    Removing gpio.o(i.GPIOPinTypeCAN), (30 bytes).
    Removing gpio.o(i.GPIOPinTypeCIR), (30 bytes).
    Removing gpio.o(i.GPIOPinTypeComparator), (30 bytes).
    Removing gpio.o(i.GPIOPinTypeComparatorOutput), (30 bytes).
    Removing gpio.o(i.GPIOPinTypeEPI), (30 bytes).
    Removing gpio.o(i.GPIOPinTypeEthernetLED), (30 bytes).
    Removing gpio.o(i.GPIOPinTypeEthernetMII), (30 bytes).
    Removing gpio.o(i.GPIOPinTypeGPIOInput), (30 bytes).
    Removing gpio.o(i.GPIOPinTypeGPIOOutput), (30 bytes).
    Removing gpio.o(i.GPIOPinTypeGPIOOutputOD), (30 bytes).
    Removing gpio.o(i.GPIOPinTypeKBColumn), (30 bytes).
    Removing gpio.o(i.GPIOPinTypeKBRow), (30 bytes).
    Removing gpio.o(i.GPIOPinTypeLCD), (30 bytes).
    Removing gpio.o(i.GPIOPinTypeLEDSeq), (30 bytes).
    Removing gpio.o(i.GPIOPinTypeLPC), (30 bytes).
    Removing gpio.o(i.GPIOPinTypePECIRx), (30 bytes).
    Removing gpio.o(i.GPIOPinTypePECITx), (30 bytes).
    Removing gpio.o(i.GPIOPinTypePWM), (30 bytes).
    Removing gpio.o(i.GPIOPinTypeQEI), (30 bytes).
    Removing gpio.o(i.GPIOPinTypeSSI), (30 bytes).
    Removing gpio.o(i.GPIOPinTypeTimer), (30 bytes).
    Removing gpio.o(i.GPIOPinTypeUSBAnalog), (30 bytes).
    Removing gpio.o(i.GPIOPinTypeUSBDigital), (30 bytes).
    Removing gpio.o(i.GPIOPinTypeWakeHigh), (32 bytes).
    Removing gpio.o(i.GPIOPinTypeWakeLow), (32 bytes).
    Removing gpio.o(i.GPIOPinWakeStatus), (8 bytes).
    Removing gpio.o(i.GPIOPinWrite), (10 bytes).
    Removing gpio.o(i._GPIOIntNumberGet), (76 bytes).
    Removing hibernate.o(i.HibernateBatCheckDone), (16 bytes).
    Removing hibernate.o(i.HibernateBatCheckStart), (24 bytes).
    Removing hibernate.o(i.HibernateCalendarGet), (124 bytes).
    Removing hibernate.o(i.HibernateCalendarMatchGet), (132 bytes).
    Removing hibernate.o(i.HibernateCalendarMatchSet), (20 bytes).
    Removing hibernate.o(i.HibernateCalendarSet), (20 bytes).
    Removing hibernate.o(i.HibernateClockConfig), (80 bytes).
    Removing hibernate.o(i.HibernateCounterMode), (20 bytes).
    Removing hibernate.o(i.HibernateDataGet), (32 bytes).
    Removing hibernate.o(i.HibernateDataSet), (40 bytes).
    Removing hibernate.o(i.HibernateDisable), (24 bytes).
    Removing hibernate.o(i.HibernateEnableExpClk), (28 bytes).
    Removing hibernate.o(i.HibernateGPIORetentionDisable), (28 bytes).
    Removing hibernate.o(i.HibernateGPIORetentionEnable), (28 bytes).
    Removing hibernate.o(i.HibernateGPIORetentionGet), (28 bytes).
    Removing hibernate.o(i.HibernateIntClear), (24 bytes).
    Removing hibernate.o(i.HibernateIntDisable), (24 bytes).
    Removing hibernate.o(i.HibernateIntEnable), (24 bytes).
    Removing hibernate.o(i.HibernateIntRegister), (26 bytes).
    Removing hibernate.o(i.HibernateIntStatus), (24 bytes).
    Removing hibernate.o(i.HibernateIntUnregister), (22 bytes).
    Removing hibernate.o(i.HibernateIsActive), (16 bytes).
    Removing hibernate.o(i.HibernateLowBatGet), (16 bytes).
    Removing hibernate.o(i.HibernateLowBatSet), (32 bytes).
    Removing hibernate.o(i.HibernateRTCDisable), (24 bytes).
    Removing hibernate.o(i.HibernateRTCEnable), (24 bytes).
    Removing hibernate.o(i.HibernateRTCGet), (12 bytes).
    Removing hibernate.o(i.HibernateRTCMatchGet), (12 bytes).
    Removing hibernate.o(i.HibernateRTCMatchSet), (20 bytes).
    Removing hibernate.o(i.HibernateRTCSSGet), (16 bytes).
    Removing hibernate.o(i.HibernateRTCSSMatchGet), (16 bytes).
    Removing hibernate.o(i.HibernateRTCSSMatchSet), (24 bytes).
    Removing hibernate.o(i.HibernateRTCSet), (48 bytes).
    Removing hibernate.o(i.HibernateRTCTrimGet), (12 bytes).
    Removing hibernate.o(i.HibernateRTCTrimSet), (20 bytes).
    Removing hibernate.o(i.HibernateRequest), (24 bytes).
    Removing hibernate.o(i.HibernateTamperDisable), (60 bytes).
    Removing hibernate.o(i.HibernateTamperEnable), (60 bytes).
    Removing hibernate.o(i.HibernateTamperEventsClear), (60 bytes).
    Removing hibernate.o(i.HibernateTamperEventsClearNoLock), (24 bytes).
    Removing hibernate.o(i.HibernateTamperEventsConfig), (64 bytes).
    Removing hibernate.o(i.HibernateTamperEventsGet), (104 bytes).
    Removing hibernate.o(i.HibernateTamperExtOscRecover), (60 bytes).
    Removing hibernate.o(i.HibernateTamperExtOscValid), (20 bytes).
    Removing hibernate.o(i.HibernateTamperIODisable), (68 bytes).
    Removing hibernate.o(i.HibernateTamperIOEnable), (84 bytes).
    Removing hibernate.o(i.HibernateTamperLock), (24 bytes).
    Removing hibernate.o(i.HibernateTamperStatusGet), (60 bytes).
    Removing hibernate.o(i.HibernateTamperUnLock), (24 bytes).
    Removing hibernate.o(i.HibernateWakeGet), (64 bytes).
    Removing hibernate.o(i.HibernateWakeSet), (124 bytes).
    Removing hibernate.o(i._HibernateCalendarSet), (256 bytes).
    Removing hibernate.o(i._HibernateIntNumberGet), (36 bytes).
    Removing hibernate.o(i._HibernateWriteComplete), (20 bytes).
    Removing i2c.o(i.I2CFIFODataGet), (22 bytes).
    Removing i2c.o(i.I2CFIFODataGetNonBlocking), (26 bytes).
    Removing i2c.o(i.I2CFIFODataPut), (20 bytes).
    Removing i2c.o(i.I2CFIFODataPutNonBlocking), (24 bytes).
    Removing i2c.o(i.I2CFIFOStatus), (8 bytes).
    Removing i2c.o(i.I2CIntUnregister), (26 bytes).
    Removing i2c.o(i.I2CMasterBurstCountGet), (6 bytes).
    Removing i2c.o(i.I2CMasterBurstLengthSet), (4 bytes).
    Removing i2c.o(i.I2CMasterBusBusy), (18 bytes).
    Removing i2c.o(i.I2CMasterBusy), (18 bytes).
    Removing i2c.o(i.I2CMasterControl), (4 bytes).
    Removing i2c.o(i.I2CMasterDataGet), (6 bytes).
    Removing i2c.o(i.I2CMasterDataPut), (4 bytes).
    Removing i2c.o(i.I2CMasterDisable), (10 bytes).
    Removing i2c.o(i.I2CMasterErr), (30 bytes).
    Removing i2c.o(i.I2CMasterGlitchFilterConfigSet), (8 bytes).
    Removing i2c.o(i.I2CMasterIntClear), (8 bytes).
    Removing i2c.o(i.I2CMasterIntClearEx), (4 bytes).
    Removing i2c.o(i.I2CMasterIntDisable), (6 bytes).
    Removing i2c.o(i.I2CMasterIntDisableEx), (8 bytes).
    Removing i2c.o(i.I2CMasterIntEnable), (6 bytes).
    Removing i2c.o(i.I2CMasterIntEnableEx), (8 bytes).
    Removing i2c.o(i.I2CMasterIntStatus), (28 bytes).
    Removing i2c.o(i.I2CMasterIntStatusEx), (12 bytes).
    Removing i2c.o(i.I2CMasterLineStateGet), (6 bytes).
    Removing i2c.o(i.I2CMasterSlaveAddrSet), (8 bytes).
    Removing i2c.o(i.I2CMasterTimeoutSet), (4 bytes).
    Removing i2c.o(i.I2CRxFIFOConfigSet), (22 bytes).
    Removing i2c.o(i.I2CRxFIFOFlush), (14 bytes).
    Removing i2c.o(i.I2CSlaveACKOverride), (30 bytes).
    Removing i2c.o(i.I2CSlaveACKValueSet), (30 bytes).
    Removing i2c.o(i.I2CSlaveAddressSet), (28 bytes).
    Removing i2c.o(i.I2CSlaveDataGet), (8 bytes).
    Removing i2c.o(i.I2CSlaveDataPut), (6 bytes).
    Removing i2c.o(i.I2CSlaveDisable), (16 bytes).
    Removing i2c.o(i.I2CSlaveEnable), (16 bytes).
    Removing i2c.o(i.I2CSlaveFIFODisable), (8 bytes).
    Removing i2c.o(i.I2CSlaveFIFOEnable), (10 bytes).
    Removing i2c.o(i.I2CSlaveInit), (18 bytes).
    Removing i2c.o(i.I2CSlaveIntClear), (8 bytes).
    Removing i2c.o(i.I2CSlaveIntClearEx), (6 bytes).
    Removing i2c.o(i.I2CSlaveIntDisable), (14 bytes).
    Removing i2c.o(i.I2CSlaveIntDisableEx), (12 bytes).
    Removing i2c.o(i.I2CSlaveIntEnable), (14 bytes).
    Removing i2c.o(i.I2CSlaveIntEnableEx), (12 bytes).
    Removing i2c.o(i.I2CSlaveIntStatus), (32 bytes).
    Removing i2c.o(i.I2CSlaveIntStatusEx), (16 bytes).
    Removing i2c.o(i.I2CSlaveStatus), (8 bytes).
    Removing i2c.o(i.I2CTxFIFOConfigSet), (24 bytes).
    Removing i2c.o(i.I2CTxFIFOFlush), (14 bytes).
    Removing interrupt.o(i.IntDisable), (116 bytes).
    Removing interrupt.o(i.IntIsEnabled), (108 bytes).
    Removing interrupt.o(i.IntMasterDisable), (16 bytes).
    Removing interrupt.o(i.IntMasterEnable), (16 bytes).
    Removing interrupt.o(i.IntPendClear), (76 bytes).
    Removing interrupt.o(i.IntPendSet), (96 bytes).
    Removing interrupt.o(i.IntPriorityGet), (28 bytes).
    Removing interrupt.o(i.IntPriorityGroupingGet), (44 bytes).
    Removing interrupt.o(i.IntPriorityGroupingSet), (28 bytes).
    Removing interrupt.o(i.IntPriorityMaskGet), (8 bytes).
    Removing interrupt.o(i.IntPriorityMaskSet), (12 bytes).
    Removing interrupt.o(i.IntPrioritySet), (52 bytes).
    Removing interrupt.o(i.IntUnregister), (20 bytes).
    Removing interrupt.o(i._IntDefaultHandler), (4 bytes).
    Removing lcd.o(i.LCDClockReset), (36 bytes).
    Removing lcd.o(i.LCDDMAConfigSet), (4 bytes).
    Removing lcd.o(i.LCDIDDCommandWrite), (16 bytes).
    Removing lcd.o(i.LCDIDDConfigSet), (4 bytes).
    Removing lcd.o(i.LCDIDDDMADisable), (10 bytes).
    Removing lcd.o(i.LCDIDDDMAWrite), (50 bytes).
    Removing lcd.o(i.LCDIDDDataRead), (18 bytes).
    Removing lcd.o(i.LCDIDDDataWrite), (16 bytes).
    Removing lcd.o(i.LCDIDDIndexedRead), (32 bytes).
    Removing lcd.o(i.LCDIDDIndexedWrite), (28 bytes).
    Removing lcd.o(i.LCDIDDStatusRead), (18 bytes).
    Removing lcd.o(i.LCDIDDTimingSet), (54 bytes).
    Removing lcd.o(i.LCDIntClear), (4 bytes).
    Removing lcd.o(i.LCDIntDisable), (4 bytes).
    Removing lcd.o(i.LCDIntEnable), (4 bytes).
    Removing lcd.o(i.LCDIntRegister), (22 bytes).
    Removing lcd.o(i.LCDIntStatus), (12 bytes).
    Removing lcd.o(i.LCDIntUnregister), (18 bytes).
    Removing lcd.o(i.LCDModeSet), (36 bytes).
    Removing lcd.o(i.LCDRasterACBiasIntCountSet), (22 bytes).
    Removing lcd.o(i.LCDRasterConfigSet), (8 bytes).
    Removing lcd.o(i.LCDRasterDisable), (10 bytes).
    Removing lcd.o(i.LCDRasterEnable), (22 bytes).
    Removing lcd.o(i.LCDRasterEnabled), (10 bytes).
    Removing lcd.o(i.LCDRasterFrameBufferSet), (24 bytes).
    Removing lcd.o(i.LCDRasterPaletteSet), (126 bytes).
    Removing lcd.o(i.LCDRasterSubPanelConfigSet), (48 bytes).
    Removing lcd.o(i.LCDRasterSubPanelDisable), (10 bytes).
    Removing lcd.o(i.LCDRasterSubPanelEnable), (10 bytes).
    Removing lcd.o(i.LCDRasterTimingSet), (158 bytes).
    Removing mpu.o(i.MPUDisable), (20 bytes).
    Removing mpu.o(i.MPUEnable), (16 bytes).
    Removing mpu.o(i.MPUIntRegister), (20 bytes).
    Removing mpu.o(i.MPUIntUnregister), (16 bytes).
    Removing mpu.o(i.MPURegionCountGet), (16 bytes).
    Removing mpu.o(i.MPURegionDisable), (28 bytes).
    Removing mpu.o(i.MPURegionEnable), (28 bytes).
    Removing mpu.o(i.MPURegionGet), (28 bytes).
    Removing mpu.o(i.MPURegionSet), (32 bytes).
    Removing onewire.o(i.OneWireBusReset), (10 bytes).
    Removing onewire.o(i.OneWireBusStatus), (10 bytes).
    Removing onewire.o(i.OneWireDMADisable), (28 bytes).
    Removing onewire.o(i.OneWireDMAEnable), (84 bytes).
    Removing onewire.o(i.OneWireDataGet), (18 bytes).
    Removing onewire.o(i.OneWireDataGetNonBlocking), (22 bytes).
    Removing onewire.o(i.OneWireInit), (4 bytes).
    Removing onewire.o(i.OneWireIntClear), (6 bytes).
    Removing onewire.o(i.OneWireIntDisable), (12 bytes).
    Removing onewire.o(i.OneWireIntEnable), (12 bytes).
    Removing onewire.o(i.OneWireIntRegister), (30 bytes).
    Removing onewire.o(i.OneWireIntStatus), (16 bytes).
    Removing onewire.o(i.OneWireIntUnregister), (26 bytes).
    Removing onewire.o(i.OneWireTransaction), (68 bytes).
    Removing onewire.o(i._OneWireIntNumberGet), (36 bytes).
    Removing pwm.o(i.PWMClockGet), (28 bytes).
    Removing pwm.o(i.PWMClockSet), (18 bytes).
    Removing pwm.o(i.PWMDeadBandDisable), (14 bytes).
    Removing pwm.o(i.PWMDeadBandEnable), (18 bytes).
    Removing pwm.o(i.PWMFaultIntClear), (8 bytes).
    Removing pwm.o(i.PWMFaultIntClearExt), (4 bytes).
    Removing pwm.o(i.PWMFaultIntRegister), (30 bytes).
    Removing pwm.o(i.PWMFaultIntUnregister), (26 bytes).
    Removing pwm.o(i.PWMGenConfigure), (48 bytes).
    Removing pwm.o(i.PWMGenDisable), (10 bytes).
    Removing pwm.o(i.PWMGenEnable), (10 bytes).
    Removing pwm.o(i.PWMGenFaultClear), (36 bytes).
    Removing pwm.o(i.PWMGenFaultConfigure), (20 bytes).
    Removing pwm.o(i.PWMGenFaultStatus), (38 bytes).
    Removing pwm.o(i.PWMGenFaultTriggerGet), (16 bytes).
    Removing pwm.o(i.PWMGenFaultTriggerSet), (16 bytes).
    Removing pwm.o(i.PWMGenIntClear), (6 bytes).
    Removing pwm.o(i.PWMGenIntRegister), (38 bytes).
    Removing pwm.o(i.PWMGenIntStatus), (16 bytes).
    Removing pwm.o(i.PWMGenIntTrigDisable), (14 bytes).
    Removing pwm.o(i.PWMGenIntTrigEnable), (14 bytes).
    Removing pwm.o(i.PWMGenIntUnregister), (30 bytes).
    Removing pwm.o(i.PWMGenPeriodGet), (24 bytes).
    Removing pwm.o(i.PWMGenPeriodSet), (22 bytes).
    Removing pwm.o(i.PWMIntDisable), (8 bytes).
    Removing pwm.o(i.PWMIntEnable), (8 bytes).
    Removing pwm.o(i.PWMIntStatus), (14 bytes).
    Removing pwm.o(i.PWMOutputFault), (20 bytes).
    Removing pwm.o(i.PWMOutputFaultLevel), (20 bytes).
    Removing pwm.o(i.PWMOutputInvert), (20 bytes).
    Removing pwm.o(i.PWMOutputState), (20 bytes).
    Removing pwm.o(i.PWMOutputUpdateMode), (82 bytes).
    Removing pwm.o(i.PWMPulseWidthGet), (40 bytes).
    Removing pwm.o(i.PWMPulseWidthSet), (38 bytes).
    Removing pwm.o(i.PWMSyncTimeBase), (4 bytes).
    Removing pwm.o(i.PWMSyncUpdate), (4 bytes).
    Removing pwm.o(i._PWMFaultIntNumberGet), (84 bytes).
    Removing pwm.o(i._PWMGenIntNumberGet), (272 bytes).
    Removing qei.o(i.QEIConfigure), (14 bytes).
    Removing qei.o(i.QEIDirectionGet), (20 bytes).
    Removing qei.o(i.QEIDisable), (10 bytes).
    Removing qei.o(i.QEIEnable), (10 bytes).
    Removing qei.o(i.QEIErrorGet), (10 bytes).
    Removing qei.o(i.QEIIntClear), (4 bytes).
    Removing qei.o(i.QEIIntDisable), (8 bytes).
    Removing qei.o(i.QEIIntEnable), (8 bytes).
    Removing qei.o(i.QEIIntRegister), (30 bytes).
    Removing qei.o(i.QEIIntStatus), (12 bytes).
    Removing qei.o(i.QEIIntUnregister), (26 bytes).
    Removing qei.o(i.QEIPositionGet), (6 bytes).
    Removing qei.o(i.QEIPositionSet), (4 bytes).
    Removing qei.o(i.QEIVelocityConfigure), (16 bytes).
    Removing qei.o(i.QEIVelocityDisable), (10 bytes).
    Removing qei.o(i.QEIVelocityEnable), (10 bytes).
    Removing qei.o(i.QEIVelocityGet), (6 bytes).
    Removing qei.o(i._QEIIntNumberGet), (84 bytes).
    Removing shamd5.o(i.SHAMD5ConfigSet), (4 bytes).
    Removing shamd5.o(i.SHAMD5DMADisable), (14 bytes).
    Removing shamd5.o(i.SHAMD5DMAEnable), (14 bytes).
    Removing shamd5.o(i.SHAMD5DataProcess), (70 bytes).
    Removing shamd5.o(i.SHAMD5DataWrite), (38 bytes).
    Removing shamd5.o(i.SHAMD5DataWriteNonBlocking), (42 bytes).
    Removing shamd5.o(i.SHAMD5HMACKeySet), (24 bytes).
    Removing shamd5.o(i.SHAMD5HMACPPKeyGenerate), (74 bytes).
    Removing shamd5.o(i.SHAMD5HMACPPKeySet), (28 bytes).
    Removing shamd5.o(i.SHAMD5HMACProcess), (70 bytes).
    Removing shamd5.o(i.SHAMD5HashLengthSet), (4 bytes).
    Removing shamd5.o(i.SHAMD5IntClear), (22 bytes).
    Removing shamd5.o(i.SHAMD5IntDisable), (60 bytes).
    Removing shamd5.o(i.SHAMD5IntEnable), (54 bytes).
    Removing shamd5.o(i.SHAMD5IntRegister), (22 bytes).
    Removing shamd5.o(i.SHAMD5IntStatus), (84 bytes).
    Removing shamd5.o(i.SHAMD5IntUnregister), (18 bytes).
    Removing shamd5.o(i.SHAMD5Reset), (40 bytes).
    Removing shamd5.o(i.SHAMD5ResultRead), (70 bytes).
    Removing shamd5.o(i._SHAMD5DataWriteMultiple), (80 bytes).
    Removing ssi.o(i.SSIAdvDataPutFrameEnd), (24 bytes).
    Removing ssi.o(i.SSIAdvDataPutFrameEndNonBlocking), (28 bytes).
    Removing ssi.o(i.SSIAdvFrameHoldDisable), (10 bytes).
    Removing ssi.o(i.SSIAdvFrameHoldEnable), (10 bytes).
    Removing ssi.o(i.SSIAdvModeSet), (12 bytes).
    Removing ssi.o(i.SSIBusy), (10 bytes).
    Removing ssi.o(i.SSIClockSourceGet), (8 bytes).
    Removing ssi.o(i.SSIClockSourceSet), (6 bytes).
    Removing ssi.o(i.SSIConfigSetExpClk), (86 bytes).
    Removing ssi.o(i.SSIDMADisable), (8 bytes).
    Removing ssi.o(i.SSIDMAEnable), (8 bytes).
    Removing ssi.o(i.SSIDataGet), (18 bytes).
    Removing ssi.o(i.SSIDataGetNonBlocking), (22 bytes).
    Removing ssi.o(i.SSIDataPut), (16 bytes).
    Removing ssi.o(i.SSIDataPutNonBlocking), (20 bytes).
    Removing ssi.o(i.SSIDisable), (10 bytes).
    Removing ssi.o(i.SSIEnable), (10 bytes).
    Removing ssi.o(i.SSIIntClear), (4 bytes).
    Removing ssi.o(i.SSIIntDisable), (8 bytes).
    Removing ssi.o(i.SSIIntEnable), (8 bytes).
    Removing ssi.o(i.SSIIntRegister), (30 bytes).
    Removing ssi.o(i.SSIIntStatus), (12 bytes).
    Removing ssi.o(i.SSIIntUnregister), (26 bytes).
    Removing ssi.o(i._SSIIntNumberGet), (76 bytes).
    Removing ssi.o(.constdata), (64 bytes).
    Removing sw_crc.o(i.Crc16), (208 bytes).
    Removing sw_crc.o(i.Crc16Array), (18 bytes).
    Removing sw_crc.o(i.Crc16Array3), (156 bytes).
    Removing sw_crc.o(i.Crc32), (208 bytes).
    Removing sw_crc.o(i.Crc8CCITT), (140 bytes).
    Removing sw_crc.o(.constdata), (1792 bytes).
    Removing sysctl.o(.emb_text), (6 bytes).
    Removing sysctl.o(i.SysCtlAltClkConfig), (12 bytes).
    Removing sysctl.o(i.SysCtlClockFreqSet), (684 bytes).
    Removing sysctl.o(i.SysCtlClockOutConfig), (16 bytes).
    Removing sysctl.o(i.SysCtlClockSet), (300 bytes).
    Removing sysctl.o(i.SysCtlDeepSleep), (36 bytes).
    Removing sysctl.o(i.SysCtlDeepSleepClockConfigSet), (124 bytes).
    Removing sysctl.o(i.SysCtlDeepSleepClockSet), (12 bytes).
    Removing sysctl.o(i.SysCtlDeepSleepPowerSet), (12 bytes).
    Removing sysctl.o(i.SysCtlFlashSectorSizeGet), (52 bytes).
    Removing sysctl.o(i.SysCtlFlashSizeGet), (56 bytes).
    Removing sysctl.o(i.SysCtlGPIOAHBDisable), (24 bytes).
    Removing sysctl.o(i.SysCtlGPIOAHBEnable), (24 bytes).
    Removing sysctl.o(i.SysCtlIntClear), (12 bytes).
    Removing sysctl.o(i.SysCtlIntDisable), (16 bytes).
    Removing sysctl.o(i.SysCtlIntEnable), (16 bytes).
    Removing sysctl.o(i.SysCtlIntRegister), (20 bytes).
    Removing sysctl.o(i.SysCtlIntStatus), (20 bytes).
    Removing sysctl.o(i.SysCtlIntUnregister), (16 bytes).
    Removing sysctl.o(i.SysCtlLDODeepSleepGet), (12 bytes).
    Removing sysctl.o(i.SysCtlLDODeepSleepSet), (12 bytes).
    Removing sysctl.o(i.SysCtlLDOSleepGet), (12 bytes).
    Removing sysctl.o(i.SysCtlLDOSleepSet), (12 bytes).
    Removing sysctl.o(i.SysCtlMOSCConfigSet), (12 bytes).
    Removing sysctl.o(i.SysCtlNMIClear), (16 bytes).
    Removing sysctl.o(i.SysCtlNMIStatus), (12 bytes).
    Removing sysctl.o(i.SysCtlPIOSCCalibrate), (92 bytes).
    Removing sysctl.o(i.SysCtlPWMClockGet), (28 bytes).
    Removing sysctl.o(i.SysCtlPWMClockSet), (20 bytes).
    Removing sysctl.o(i.SysCtlPeripheralClockGating), (96 bytes).
    Removing sysctl.o(i.SysCtlPeripheralDeepSleepDisable), (52 bytes).
    Removing sysctl.o(i.SysCtlPeripheralDeepSleepEnable), (52 bytes).
    Removing sysctl.o(i.SysCtlPeripheralDisable), (52 bytes).
    Removing sysctl.o(i.SysCtlPeripheralPowerOff), (52 bytes).
    Removing sysctl.o(i.SysCtlPeripheralPowerOn), (52 bytes).
    Removing sysctl.o(i.SysCtlPeripheralPresent), (56 bytes).
    Removing sysctl.o(i.SysCtlPeripheralReady), (56 bytes).
    Removing sysctl.o(i.SysCtlPeripheralSleepDisable), (52 bytes).
    Removing sysctl.o(i.SysCtlPeripheralSleepEnable), (52 bytes).
    Removing sysctl.o(i.SysCtlReset), (20 bytes).
    Removing sysctl.o(i.SysCtlResetBehaviorGet), (12 bytes).
    Removing sysctl.o(i.SysCtlResetBehaviorSet), (12 bytes).
    Removing sysctl.o(i.SysCtlResetCauseClear), (16 bytes).
    Removing sysctl.o(i.SysCtlResetCauseGet), (12 bytes).
    Removing sysctl.o(i.SysCtlSRAMSizeGet), (16 bytes).
    Removing sysctl.o(i.SysCtlSleep), (8 bytes).
    Removing sysctl.o(i.SysCtlSleepPowerSet), (12 bytes).
    Removing sysctl.o(i.SysCtlUSBPLLDisable), (20 bytes).
    Removing sysctl.o(i.SysCtlUSBPLLEnable), (20 bytes).
    Removing sysctl.o(i.SysCtlVoltageEventClear), (16 bytes).
    Removing sysctl.o(i.SysCtlVoltageEventConfig), (12 bytes).
    Removing sysctl.o(i.SysCtlVoltageEventStatus), (12 bytes).
    Removing sysctl.o(i._SysCtlFrequencyGet), (100 bytes).
    Removing sysctl.o(i._SysCtlMemTimingGet), (40 bytes).
    Removing sysexc.o(i.SysExcIntClear), (12 bytes).
    Removing sysexc.o(i.SysExcIntDisable), (16 bytes).
    Removing sysexc.o(i.SysExcIntEnable), (16 bytes).
    Removing sysexc.o(i.SysExcIntRegister), (26 bytes).
    Removing sysexc.o(i.SysExcIntStatus), (20 bytes).
    Removing sysexc.o(i.SysExcIntUnregister), (22 bytes).
    Removing sysexc.o(i._SysExcIntNumberGet), (56 bytes).
    Removing systick.o(i.SysTickDisable), (18 bytes).
    Removing systick.o(i.SysTickEnable), (18 bytes).
    Removing systick.o(i.SysTickIntDisable), (18 bytes).
    Removing systick.o(i.SysTickIntEnable), (18 bytes).
    Removing systick.o(i.SysTickIntRegister), (30 bytes).
    Removing systick.o(i.SysTickIntUnregister), (26 bytes).
    Removing systick.o(i.SysTickPeriodGet), (10 bytes).
    Removing systick.o(i.SysTickPeriodSet), (10 bytes).
    Removing systick.o(i.SysTickValueGet), (8 bytes).
    Removing timer.o(i.TimerADCEventGet), (6 bytes).
    Removing timer.o(i.TimerADCEventSet), (4 bytes).
    Removing timer.o(i.TimerClockSourceGet), (8 bytes).
    Removing timer.o(i.TimerClockSourceSet), (6 bytes).
    Removing timer.o(i.TimerConfigure), (96 bytes).
    Removing timer.o(i.TimerControlEvent), (22 bytes).
    Removing timer.o(i.TimerControlLevel), (22 bytes).
    Removing timer.o(i.TimerControlStall), (22 bytes).
    Removing timer.o(i.TimerControlTrigger), (72 bytes).
    Removing timer.o(i.TimerControlWaitOnTrigger), (52 bytes).
    Removing timer.o(i.TimerDMAEventGet), (6 bytes).
    Removing timer.o(i.TimerDMAEventSet), (4 bytes).
    Removing timer.o(i.TimerDisable), (14 bytes).
    Removing timer.o(i.TimerEnable), (14 bytes).
    Removing timer.o(i.TimerIntClear), (4 bytes).
    Removing timer.o(i.TimerIntDisable), (8 bytes).
    Removing timer.o(i.TimerIntEnable), (8 bytes).
    Removing timer.o(i.TimerIntRegister), (38 bytes).
    Removing timer.o(i.TimerIntStatus), (12 bytes).
    Removing timer.o(i.TimerIntUnregister), (30 bytes).
    Removing timer.o(i.TimerLoadGet), (14 bytes).
    Removing timer.o(i.TimerLoadGet64), (26 bytes).
    Removing timer.o(i.TimerLoadSet), (16 bytes).
    Removing timer.o(i.TimerLoadSet64), (6 bytes).
    Removing timer.o(i.TimerMatchGet), (14 bytes).
    Removing timer.o(i.TimerMatchGet64), (26 bytes).
    Removing timer.o(i.TimerMatchSet), (16 bytes).
    Removing timer.o(i.TimerMatchSet64), (6 bytes).
    Removing timer.o(i.TimerPrescaleGet), (14 bytes).
    Removing timer.o(i.TimerPrescaleMatchGet), (14 bytes).
    Removing timer.o(i.TimerPrescaleMatchSet), (16 bytes).
    Removing timer.o(i.TimerPrescaleSet), (16 bytes).
    Removing timer.o(i.TimerRTCDisable), (10 bytes).
    Removing timer.o(i.TimerRTCEnable), (10 bytes).
    Removing timer.o(i.TimerSynchronize), (4 bytes).
    Removing timer.o(i.TimerUpdateMode), (42 bytes).
    Removing timer.o(i.TimerValueGet), (14 bytes).
    Removing timer.o(i.TimerValueGet64), (26 bytes).
    Removing timer.o(i._TimerIntNumberGet), (88 bytes).
    Removing timer.o(.constdata), (160 bytes).
    Removing uart.o(i.UART9BitAddrSend), (44 bytes).
    Removing uart.o(i.UART9BitAddrSet), (10 bytes).
    Removing uart.o(i.UART9BitDisable), (14 bytes).
    Removing uart.o(i.UART9BitEnable), (14 bytes).
    Removing uart.o(i.UARTBreakCtl), (20 bytes).
    Removing uart.o(i.UARTBusy), (10 bytes).
    Removing uart.o(i.UARTCharGet), (18 bytes).
    Removing uart.o(i.UARTCharGetNonBlocking), (20 bytes).
    Removing uart.o(i.UARTCharPut), (16 bytes).
    Removing uart.o(i.UARTCharPutNonBlocking), (20 bytes).
    Removing uart.o(i.UARTCharsAvail), (12 bytes).
    Removing uart.o(i.UARTClockSourceGet), (8 bytes).
    Removing uart.o(i.UARTConfigGetExpClk), (44 bytes).
    Removing uart.o(i.UARTConfigSetExpClk), (76 bytes).
    Removing uart.o(i.UARTDMADisable), (8 bytes).
    Removing uart.o(i.UARTDMAEnable), (8 bytes).
    Removing uart.o(i.UARTDisable), (32 bytes).
    Removing uart.o(i.UARTDisableSIR), (10 bytes).
    Removing uart.o(i.UARTEnable), (20 bytes).
    Removing uart.o(i.UARTEnableSIR), (22 bytes).
    Removing uart.o(i.UARTFIFODisable), (10 bytes).
    Removing uart.o(i.UARTFIFOEnable), (10 bytes).
    Removing uart.o(i.UARTFIFOLevelGet), (18 bytes).
    Removing uart.o(i.UARTFIFOLevelSet), (8 bytes).
    Removing uart.o(i.UARTFlowControlGet), (10 bytes).
    Removing uart.o(i.UARTFlowControlSet), (12 bytes).
    Removing uart.o(i.UARTIntClear), (4 bytes).
    Removing uart.o(i.UARTIntDisable), (8 bytes).
    Removing uart.o(i.UARTIntEnable), (8 bytes).
    Removing uart.o(i.UARTIntRegister), (30 bytes).
    Removing uart.o(i.UARTIntStatus), (12 bytes).
    Removing uart.o(i.UARTIntUnregister), (26 bytes).
    Removing uart.o(i.UARTModemControlClear), (12 bytes).
    Removing uart.o(i.UARTModemControlGet), (10 bytes).
    Removing uart.o(i.UARTModemControlSet), (12 bytes).
    Removing uart.o(i.UARTModemStatusGet), (12 bytes).
    Removing uart.o(i.UARTParityModeGet), (10 bytes).
    Removing uart.o(i.UARTParityModeSet), (12 bytes).
    Removing uart.o(i.UARTRxErrorClear), (6 bytes).
    Removing uart.o(i.UARTRxErrorGet), (10 bytes).
    Removing uart.o(i.UARTSmartCardDisable), (10 bytes).
    Removing uart.o(i.UARTSmartCardEnable), (22 bytes).
    Removing uart.o(i.UARTSpaceAvail), (12 bytes).
    Removing uart.o(i.UARTTxIntModeGet), (10 bytes).
    Removing uart.o(i.UARTTxIntModeSet), (12 bytes).
    Removing uart.o(i._UARTIntNumberGet), (76 bytes).
    Removing uart.o(.constdata), (128 bytes).
    Removing udma.o(i.uDMAChannelAssign), (40 bytes).
    Removing udma.o(i.uDMAChannelAttributeDisable), (68 bytes).
    Removing udma.o(i.uDMAChannelAttributeEnable), (68 bytes).
    Removing udma.o(i.uDMAChannelAttributeGet), (80 bytes).
    Removing udma.o(i.uDMAChannelControlSet), (40 bytes).
    Removing udma.o(i.uDMAChannelDisable), (20 bytes).
    Removing udma.o(i.uDMAChannelEnable), (20 bytes).
    Removing udma.o(i.uDMAChannelIsEnabled), (32 bytes).
    Removing udma.o(i.uDMAChannelModeGet), (48 bytes).
    Removing udma.o(i.uDMAChannelRequest), (20 bytes).
    Removing udma.o(i.uDMAChannelScatterGatherSet), (92 bytes).
    Removing udma.o(i.uDMAChannelSelectDefault), (16 bytes).
    Removing udma.o(i.uDMAChannelSelectSecondary), (16 bytes).
    Removing udma.o(i.uDMAChannelSizeGet), (44 bytes).
    Removing udma.o(i.uDMAChannelTransferSet), (176 bytes).
    Removing udma.o(i.uDMAControlAlternateBaseGet), (12 bytes).
    Removing udma.o(i.uDMAControlBaseGet), (12 bytes).
    Removing udma.o(i.uDMAControlBaseSet), (12 bytes).
    Removing udma.o(i.uDMADisable), (12 bytes).
    Removing udma.o(i.uDMAEnable), (12 bytes).
    Removing udma.o(i.uDMAErrorStatusClear), (12 bytes).
    Removing udma.o(i.uDMAErrorStatusGet), (12 bytes).
    Removing udma.o(i.uDMAIntClear), (12 bytes).
    Removing udma.o(i.uDMAIntRegister), (22 bytes).
    Removing udma.o(i.uDMAIntStatus), (12 bytes).
    Removing udma.o(i.uDMAIntUnregister), (18 bytes).
    Removing usb.o(i.USBClockDisable), (8 bytes).
    Removing usb.o(i.USBClockEnable), (10 bytes).
    Removing usb.o(i.USBControllerVersion), (12 bytes).
    Removing usb.o(i.USBDMAChannelAddressGet), (12 bytes).
    Removing usb.o(i.USBDMAChannelAddressSet), (12 bytes).
    Removing usb.o(i.USBDMAChannelConfigSet), (26 bytes).
    Removing usb.o(i.USBDMAChannelCountGet), (12 bytes).
    Removing usb.o(i.USBDMAChannelCountSet), (12 bytes).
    Removing usb.o(i.USBDMAChannelDisable), (24 bytes).
    Removing usb.o(i.USBDMAChannelEnable), (24 bytes).
    Removing usb.o(i.USBDMAChannelIntDisable), (24 bytes).
    Removing usb.o(i.USBDMAChannelIntEnable), (24 bytes).
    Removing usb.o(i.USBDMAChannelIntStatus), (8 bytes).
    Removing usb.o(i.USBDMAChannelStatus), (16 bytes).
    Removing usb.o(i.USBDMAChannelStatusClear), (26 bytes).
    Removing usb.o(i.USBDMANumChannels), (10 bytes).
    Removing usb.o(i.USBDevAddrGet), (6 bytes).
    Removing usb.o(i.USBDevAddrSet), (4 bytes).
    Removing usb.o(i.USBDevConnect), (10 bytes).
    Removing usb.o(i.USBDevDisconnect), (10 bytes).
    Removing usb.o(i.USBDevEndpointConfigGet), (200 bytes).
    Removing usb.o(i.USBDevEndpointConfigSet), (174 bytes).
    Removing usb.o(i.USBDevEndpointDataAck), (44 bytes).
    Removing usb.o(i.USBDevEndpointStall), (68 bytes).
    Removing usb.o(i.USBDevEndpointStallClear), (92 bytes).
    Removing usb.o(i.USBDevEndpointStatusClear), (112 bytes).
    Removing usb.o(i.USBDevLPMConfig), (6 bytes).
    Removing usb.o(i.USBDevLPMDisable), (14 bytes).
    Removing usb.o(i.USBDevLPMEnable), (14 bytes).
    Removing usb.o(i.USBDevLPMRemoteWake), (14 bytes).
    Removing usb.o(i.USBDevMode), (8 bytes).
    Removing usb.o(i.USBDevSpeedGet), (18 bytes).
    Removing usb.o(i.USBEndpointDMAChannel), (34 bytes).
    Removing usb.o(i.USBEndpointDMAConfigSet), (112 bytes).
    Removing usb.o(i.USBEndpointDMADisable), (60 bytes).
    Removing usb.o(i.USBEndpointDMAEnable), (60 bytes).
    Removing usb.o(i.USBEndpointDataAvail), (34 bytes).
    Removing usb.o(i.USBEndpointDataGet), (82 bytes).
    Removing usb.o(i.USBEndpointDataPut), (54 bytes).
    Removing usb.o(i.USBEndpointDataSend), (58 bytes).
    Removing usb.o(i.USBEndpointDataToggleClear), (52 bytes).
    Removing usb.o(i.USBEndpointPacketCountSet), (18 bytes).
    Removing usb.o(i.USBEndpointStatus), (28 bytes).
    Removing usb.o(i.USBFIFOAddrGet), (12 bytes).
    Removing usb.o(i.USBFIFOConfigGet), (88 bytes).
    Removing usb.o(i.USBFIFOConfigSet), (92 bytes).
    Removing usb.o(i.USBFIFOFlush), (96 bytes).
    Removing usb.o(i.USBFrameNumberGet), (6 bytes).
    Removing usb.o(i.USBHighSpeed), (22 bytes).
    Removing usb.o(i.USBHostAddrGet), (32 bytes).
    Removing usb.o(i.USBHostAddrSet), (32 bytes).
    Removing usb.o(i.USBHostEndpointConfig), (298 bytes).
    Removing usb.o(i.USBHostEndpointDataAck), (40 bytes).
    Removing usb.o(i.USBHostEndpointDataToggle), (114 bytes).
    Removing usb.o(i.USBHostEndpointPing), (44 bytes).
    Removing usb.o(i.USBHostEndpointSpeed), (124 bytes).
    Removing usb.o(i.USBHostEndpointStatusClear), (56 bytes).
    Removing usb.o(i.USBHostHubAddrGet), (32 bytes).
    Removing usb.o(i.USBHostHubAddrSet), (68 bytes).
    Removing usb.o(i.USBHostLPMConfig), (22 bytes).
    Removing usb.o(i.USBHostLPMResume), (14 bytes).
    Removing usb.o(i.USBHostLPMSend), (36 bytes).
    Removing usb.o(i.USBHostMode), (8 bytes).
    Removing usb.o(i.USBHostPwrConfig), (24 bytes).
    Removing usb.o(i.USBHostPwrDisable), (14 bytes).
    Removing usb.o(i.USBHostPwrEnable), (14 bytes).
    Removing usb.o(i.USBHostPwrFaultDisable), (14 bytes).
    Removing usb.o(i.USBHostPwrFaultEnable), (14 bytes).
    Removing usb.o(i.USBHostRequestIN), (20 bytes).
    Removing usb.o(i.USBHostRequestINClear), (24 bytes).
    Removing usb.o(i.USBHostRequestStatus), (8 bytes).
    Removing usb.o(i.USBHostReset), (22 bytes).
    Removing usb.o(i.USBHostResume), (22 bytes).
    Removing usb.o(i.USBHostSpeedGet), (48 bytes).
    Removing usb.o(i.USBHostSuspend), (10 bytes).
    Removing usb.o(i.USBIntDisableControl), (40 bytes).
    Removing usb.o(i.USBIntDisableEndpoint), (20 bytes).
    Removing usb.o(i.USBIntEnableControl), (40 bytes).
    Removing usb.o(i.USBIntEnableEndpoint), (22 bytes).
    Removing usb.o(i.USBIntRegister), (30 bytes).
    Removing usb.o(i.USBIntStatusControl), (64 bytes).
    Removing usb.o(i.USBIntStatusEndpoint), (12 bytes).
    Removing usb.o(i.USBIntUnregister), (26 bytes).
    Removing usb.o(i.USBLPMEndpointGet), (12 bytes).
    Removing usb.o(i.USBLPMIntDisable), (12 bytes).
    Removing usb.o(i.USBLPMIntEnable), (12 bytes).
    Removing usb.o(i.USBLPMIntStatus), (8 bytes).
    Removing usb.o(i.USBLPMLinkStateGet), (12 bytes).
    Removing usb.o(i.USBLPMRemoteWakeEnabled), (20 bytes).
    Removing usb.o(i.USBModeConfig), (6 bytes).
    Removing usb.o(i.USBModeGet), (12 bytes).
    Removing usb.o(i.USBNumEndpointsGet), (12 bytes).
    Removing usb.o(i.USBOTGMode), (8 bytes).
    Removing usb.o(i.USBOTGSessionRequest), (30 bytes).
    Removing usb.o(i.USBPHYPowerOff), (10 bytes).
    Removing usb.o(i.USBPHYPowerOn), (10 bytes).
    Removing usb.o(i.USBULPIConfig), (6 bytes).
    Removing usb.o(i.USBULPIDisable), (14 bytes).
    Removing usb.o(i.USBULPIEnable), (14 bytes).
    Removing usb.o(i.USBULPIRegRead), (38 bytes).
    Removing usb.o(i.USBULPIRegWrite), (34 bytes).
    Removing usb.o(i._USBIndexRead), (22 bytes).
    Removing usb.o(i._USBIndexWrite), (22 bytes).
    Removing usb.o(i._USBIntNumberGet), (60 bytes).
    Removing watchdog.o(i.WatchdogEnable), (10 bytes).
    Removing watchdog.o(i.WatchdogIntClear), (6 bytes).
    Removing watchdog.o(i.WatchdogIntEnable), (10 bytes).
    Removing watchdog.o(i.WatchdogIntRegister), (22 bytes).
    Removing watchdog.o(i.WatchdogIntStatus), (12 bytes).
    Removing watchdog.o(i.WatchdogIntTypeSet), (12 bytes).
    Removing watchdog.o(i.WatchdogIntUnregister), (18 bytes).
    Removing watchdog.o(i.WatchdogLock), (8 bytes).
    Removing watchdog.o(i.WatchdogLockState), (16 bytes).
    Removing watchdog.o(i.WatchdogReloadGet), (6 bytes).
    Removing watchdog.o(i.WatchdogReloadSet), (4 bytes).
    Removing watchdog.o(i.WatchdogResetDisable), (10 bytes).
    Removing watchdog.o(i.WatchdogResetEnable), (10 bytes).
    Removing watchdog.o(i.WatchdogRunning), (10 bytes).
    Removing watchdog.o(i.WatchdogStallDisable), (14 bytes).
    Removing watchdog.o(i.WatchdogStallEnable), (14 bytes).
    Removing watchdog.o(i.WatchdogUnlock), (12 bytes).
    Removing watchdog.o(i.WatchdogValueGet), (6 bytes).
    Removing ak8963.o(i.AK8963Callback), (104 bytes).
    Removing ak8963.o(i.AK8963DataGetStatus), (14 bytes).
    Removing ak8963.o(i.AK8963DataMagnetoGetFloat), (108 bytes).
    Removing ak8963.o(i.AK8963DataMagnetoGetRaw), (40 bytes).
    Removing ak8963.o(i.AK8963DataRead), (76 bytes).
    Removing ak8963.o(i.AK8963Init), (42 bytes).
    Removing ak8963.o(i.AK8963Read), (84 bytes).
    Removing ak8963.o(i.AK8963ReadModifyWrite), (80 bytes).
    Removing ak8963.o(i.AK8963Write), (128 bytes).
    Removing ak8963.o(.constdata), (8 bytes).
    Removing ak8975.o(i.AK8975Callback), (60 bytes).
    Removing ak8975.o(i.AK8975DataGetStatus), (14 bytes).
    Removing ak8975.o(i.AK8975DataMagnetoGetFloat), (200 bytes).
    Removing ak8975.o(i.AK8975DataMagnetoGetRaw), (40 bytes).
    Removing ak8975.o(i.AK8975DataRead), (72 bytes).
    Removing ak8975.o(i.AK8975Init), (38 bytes).
    Removing ak8975.o(i.AK8975Read), (84 bytes).
    Removing ak8975.o(i.AK8975ReadModifyWrite), (80 bytes).
    Removing ak8975.o(i.AK8975Write), (80 bytes).
    Removing bmp180.o(i.BMP180Callback), (660 bytes).
    Removing bmp180.o(i.BMP180DataPressureGetFloat), (604 bytes).
    Removing bmp180.o(i.BMP180DataPressureGetRaw), (24 bytes).
    Removing bmp180.o(i.BMP180DataRead), (72 bytes).
    Removing bmp180.o(i.BMP180DataTemperatureGetFloat), (140 bytes).
    Removing bmp180.o(i.BMP180DataTemperatureGetRaw), (12 bytes).
    Removing bmp180.o(i.BMP180Init), (84 bytes).
    Removing bmp180.o(i.BMP180Read), (84 bytes).
    Removing bmp180.o(i.BMP180ReadModifyWrite), (80 bytes).
    Removing bmp180.o(i.BMP180Write), (104 bytes).
    Removing bq27510g3.o(i.BQ27510G3Callback), (156 bytes).
    Removing bq27510g3.o(i.BQ27510G3DataAtRateTimeToEmptyGetFloat), (32 bytes).
    Removing bq27510g3.o(i.BQ27510G3DataAtRateTimeToEmptyGetRaw), (14 bytes).
    Removing bq27510g3.o(i.BQ27510G3DataCapacityFullAvailableGetFloat), (52 bytes).
    Removing bq27510g3.o(i.BQ27510G3DataCapacityFullAvailableGetRaw), (14 bytes).
    Removing bq27510g3.o(i.BQ27510G3DataCapacityFullChargeGetFloat), (52 bytes).
    Removing bq27510g3.o(i.BQ27510G3DataCapacityFullChargeGetRaw), (14 bytes).
    Removing bq27510g3.o(i.BQ27510G3DataCapacityNominalAvailableGetFloat), (52 bytes).
    Removing bq27510g3.o(i.BQ27510G3DataCapacityNominalAvailableGetRaw), (14 bytes).
    Removing bq27510g3.o(i.BQ27510G3DataCapacityRemainingGetFloat), (52 bytes).
    Removing bq27510g3.o(i.BQ27510G3DataCapacityRemainingGetRaw), (14 bytes).
    Removing bq27510g3.o(i.BQ27510G3DataChargeStateGetFloat), (32 bytes).
    Removing bq27510g3.o(i.BQ27510G3DataChargeStateGetRaw), (18 bytes).
    Removing bq27510g3.o(i.BQ27510G3DataCurrentAverageGetFloat), (52 bytes).
    Removing bq27510g3.o(i.BQ27510G3DataCurrentAverageGetRaw), (14 bytes).
    Removing bq27510g3.o(i.BQ27510G3DataCurrentInstantaneousGetFloat), (52 bytes).
    Removing bq27510g3.o(i.BQ27510G3DataCurrentInstantaneousGetRaw), (18 bytes).
    Removing bq27510g3.o(i.BQ27510G3DataCurrentStandbyGetFloat), (52 bytes).
    Removing bq27510g3.o(i.BQ27510G3DataCurrentStandbyGetRaw), (14 bytes).
    Removing bq27510g3.o(i.BQ27510G3DataCycleCountGetFloat), (32 bytes).
    Removing bq27510g3.o(i.BQ27510G3DataCycleCountGetRaw), (14 bytes).
    Removing bq27510g3.o(i.BQ27510G3DataHealthGetFloat), (34 bytes).
    Removing bq27510g3.o(i.BQ27510G3DataHealthGetRaw), (14 bytes).
    Removing bq27510g3.o(i.BQ27510G3DataRead), (76 bytes).
    Removing bq27510g3.o(i.BQ27510G3DataTemperatureBatteryGetFloat), (68 bytes).
    Removing bq27510g3.o(i.BQ27510G3DataTemperatureBatteryGetRaw), (14 bytes).
    Removing bq27510g3.o(i.BQ27510G3DataTemperatureInternalGetFloat), (68 bytes).
    Removing bq27510g3.o(i.BQ27510G3DataTemperatureInternalGetRaw), (18 bytes).
    Removing bq27510g3.o(i.BQ27510G3DataTimeToEmptyGetFloat), (32 bytes).
    Removing bq27510g3.o(i.BQ27510G3DataTimeToEmptyGetRaw), (14 bytes).
    Removing bq27510g3.o(i.BQ27510G3DataTimeToEmptyStandbyGetFloat), (32 bytes).
    Removing bq27510g3.o(i.BQ27510G3DataTimeToEmptyStandbyGetRaw), (14 bytes).
    Removing bq27510g3.o(i.BQ27510G3DataVoltageBatteryGetFloat), (52 bytes).
    Removing bq27510g3.o(i.BQ27510G3DataVoltageBatteryGetRaw), (14 bytes).
    Removing bq27510g3.o(i.BQ27510G3Init), (44 bytes).
    Removing bq27510g3.o(i.BQ27510G3Read), (80 bytes).
    Removing bq27510g3.o(i.BQ27510G3ReadModifyWrite), (108 bytes).
    Removing bq27510g3.o(i.BQ27510G3Write), (80 bytes).
    Removing cm3218.o(i.CM3218Callback), (68 bytes).
    Removing cm3218.o(i.CM3218DataLightVisibleGetFloat), (56 bytes).
    Removing cm3218.o(i.CM3218DataLightVisibleGetRaw), (12 bytes).
    Removing cm3218.o(i.CM3218DataRead), (76 bytes).
    Removing cm3218.o(i.CM3218Init), (44 bytes).
    Removing cm3218.o(i.CM3218InterruptAcknowledge), (40 bytes).
    Removing cm3218.o(i.CM3218Read), (80 bytes).
    Removing cm3218.o(i.CM3218Write), (100 bytes).
    Removing cm3218.o(.constdata), (16 bytes).
    Removing cm3218.o(.data), (1 bytes).
    Removing comp_dcm.o(i.CompDCMAccelUpdate), (14 bytes).
    Removing comp_dcm.o(i.CompDCMComputeEulers), (90 bytes).
    Removing comp_dcm.o(i.CompDCMComputeQuaternion), (642 bytes).
    Removing comp_dcm.o(i.CompDCMGyroUpdate), (14 bytes).
    Removing comp_dcm.o(i.CompDCMInit), (96 bytes).
    Removing comp_dcm.o(i.CompDCMMagnetoUpdate), (14 bytes).
    Removing comp_dcm.o(i.CompDCMMatrixGet), (74 bytes).
    Removing comp_dcm.o(i.CompDCMStart), (278 bytes).
    Removing comp_dcm.o(i.CompDCMUpdate), (876 bytes).
    Removing comp_dcm.o(i.__ARM_isnanf), (14 bytes).
    Removing i2cm_drv.o(i.I2CMRead16BE), (88 bytes).
    Removing i2cm_drv.o(i.I2CMRead16BECallback), (62 bytes).
    Removing i2cm_drv.o(i.I2CMReadModifyWrite16LE), (132 bytes).
    Removing i2cm_drv.o(i.I2CMReadModifyWrite16LECallback), (108 bytes).
    Removing i2cm_drv.o(i.I2CMTransferResume), (72 bytes).
    Removing i2cm_drv.o(i.I2CMWrite16BE), (88 bytes).
    Removing i2cm_drv.o(i.I2CMWrite16BECallback), (66 bytes).
    Removing i2cm_drv.o(i.I2CMWrite8), (92 bytes).
    Removing i2cm_drv.o(i.I2CMWrite8Callback), (66 bytes).
    Removing isl29023.o(i.ISL29023Callback), (114 bytes).
    Removing isl29023.o(i.ISL29023DataLightIRGetFloat), (52 bytes).
    Removing isl29023.o(i.ISL29023DataLightIRGetRaw), (12 bytes).
    Removing isl29023.o(i.ISL29023DataLightVisibleGetFloat), (80 bytes).
    Removing isl29023.o(i.ISL29023DataLightVisibleGetRaw), (12 bytes).
    Removing isl29023.o(i.ISL29023DataRead), (76 bytes).
    Removing isl29023.o(i.ISL29023Init), (108 bytes).
    Removing isl29023.o(i.ISL29023Read), (84 bytes).
    Removing isl29023.o(i.ISL29023ReadModifyWrite), (80 bytes).
    Removing isl29023.o(i.ISL29023Write), (112 bytes).
    Removing isl29023.o(.constdata), (48 bytes).
    Removing kxti9.o(i.KXTI9Callback), (272 bytes).
    Removing kxti9.o(i.KXTI9DataAccelGetFloat), (268 bytes).
    Removing kxti9.o(i.KXTI9DataAccelGetRaw), (46 bytes).
    Removing kxti9.o(i.KXTI9DataRead), (76 bytes).
    Removing kxti9.o(i.KXTI9Init), (88 bytes).
    Removing kxti9.o(i.KXTI9Read), (84 bytes).
    Removing kxti9.o(i.KXTI9ReadModifyWrite), (80 bytes).
    Removing kxti9.o(i.KXTI9Write), (148 bytes).
    Removing kxti9.o(.constdata), (24 bytes).
    Removing l3gd20h.o(i.L3GD20HCallback), (204 bytes).
    Removing l3gd20h.o(i.L3GD20HDataGyroGetFloat), (108 bytes).
    Removing l3gd20h.o(i.L3GD20HDataGyroGetRaw), (40 bytes).
    Removing l3gd20h.o(i.L3GD20HDataRead), (76 bytes).
    Removing l3gd20h.o(i.L3GD20HInit), (108 bytes).
    Removing l3gd20h.o(i.L3GD20HRead), (84 bytes).
    Removing l3gd20h.o(i.L3GD20HReadModifyWrite), (80 bytes).
    Removing l3gd20h.o(i.L3GD20HWrite), (128 bytes).
    Removing l3gd20h.o(.constdata), (16 bytes).
    Removing lsm303d.o(i.LSM303DCallback), (164 bytes).
    Removing lsm303d.o(i.LSM303DDataAccelGetFloat), (108 bytes).
    Removing lsm303d.o(i.LSM303DDataAccelGetRaw), (40 bytes).
    Removing lsm303d.o(i.LSM303DDataMagnetoGetFloat), (108 bytes).
    Removing lsm303d.o(i.LSM303DDataMagnetoGetRaw), (40 bytes).
    Removing lsm303d.o(i.LSM303DDataRead), (76 bytes).
    Removing lsm303d.o(i.LSM303DInit), (108 bytes).
    Removing lsm303d.o(i.LSM303DRead), (84 bytes).
    Removing lsm303d.o(i.LSM303DReadModifyWrite), (80 bytes).
    Removing lsm303d.o(i.LSM303DWrite), (124 bytes).
    Removing lsm303d.o(.constdata), (79 bytes).
    Removing lsm303dlhc_accel.o(i.LSM303DLHCAccelDataAccelGetRaw), (40 bytes).
    Removing lsm303dlhc_accel.o(i.LSM303DLHCAccelRead), (84 bytes).
    Removing lsm303dlhc_accel.o(i.LSM303DLHCAccelWrite), (128 bytes).
    Removing lsm303dlhc_mag.o(i.LSM303DLHCCallback), (84 bytes).
    Removing lsm303dlhc_mag.o(i.LSM303DLHCMagDataMagnetoGetFloat), (108 bytes).
    Removing lsm303dlhc_mag.o(i.LSM303DLHCMagDataMagnetoGetRaw), (40 bytes).
    Removing lsm303dlhc_mag.o(i.LSM303DLHCMagDataRead), (76 bytes).
    Removing lsm303dlhc_mag.o(i.LSM303DLHCMagInit), (50 bytes).
    Removing lsm303dlhc_mag.o(i.LSM303DLHCMagRead), (84 bytes).
    Removing lsm303dlhc_mag.o(i.LSM303DLHCMagReadModifyWrite), (80 bytes).
    Removing lsm303dlhc_mag.o(i.LSM303DLHCMagWrite), (100 bytes).
    Removing lsm303dlhc_mag.o(.constdata), (32 bytes).
    Removing magneto.o(i.MagnetoCompensate), (296 bytes).
    Removing magneto.o(i.MagnetoCompensateInit), (30 bytes).
    Removing magneto.o(i.MagnetoHeadingCompute), (192 bytes).
    Removing mpu6050.o(i.MPU6050Callback), (252 bytes).
    Removing mpu6050.o(i.MPU6050DataAccelGetFloat), (108 bytes).
    Removing mpu6050.o(i.MPU6050DataAccelGetRaw), (40 bytes).
    Removing mpu6050.o(i.MPU6050DataGyroGetFloat), (108 bytes).
    Removing mpu6050.o(i.MPU6050DataGyroGetRaw), (40 bytes).
    Removing mpu6050.o(i.MPU6050DataRead), (76 bytes).
    Removing mpu6050.o(i.MPU6050Init), (116 bytes).
    Removing mpu6050.o(i.MPU6050Read), (84 bytes).
    Removing mpu6050.o(i.MPU6050ReadModifyWrite), (80 bytes).
    Removing mpu6050.o(i.MPU6050Write), (152 bytes).
    Removing mpu6050.o(.constdata), (32 bytes).
    Removing mpu9150.o(i.MPU9150Callback), (580 bytes).
    Removing mpu9150.o(i.MPU9150DataAccelGetFloat), (124 bytes).
    Removing mpu9150.o(i.MPU9150DataAccelGetRaw), (52 bytes).
    Removing mpu9150.o(i.MPU9150DataGyroGetFloat), (156 bytes).
    Removing mpu9150.o(i.MPU9150DataGyroGetRaw), (52 bytes).
    Removing mpu9150.o(i.MPU9150DataMagnetoGetFloat), (212 bytes).
    Removing mpu9150.o(i.MPU9150DataMagnetoGetRaw), (46 bytes).
    Removing mpu9150.o(i.MPU9150DataRead), (88 bytes).
    Removing mpu9150.o(i.MPU9150Init), (100 bytes).
    Removing mpu9150.o(i.MPU9150MagnetoInstGet), (6 bytes).
    Removing mpu9150.o(i.MPU9150Read), (92 bytes).
    Removing mpu9150.o(i.MPU9150ReadModifyWrite), (88 bytes).
    Removing mpu9150.o(i.MPU9150Write), (168 bytes).
    Removing mpu9150.o(.constdata), (32 bytes).
    Removing quaternion.o(i.QuaternionAngle), (96 bytes).
    Removing quaternion.o(i.QuaternionFromEuler), (560 bytes).
    Removing quaternion.o(i.QuaternionInverse), (76 bytes).
    Removing quaternion.o(i.QuaternionMagnitude), (50 bytes).
    Removing quaternion.o(i.QuaternionMult), (210 bytes).
    Removing sht21.o(i.SHT21Callback), (66 bytes).
    Removing sht21.o(i.SHT21DataHumidityGetFloat), (196 bytes).
    Removing sht21.o(i.SHT21DataHumidityGetRaw), (12 bytes).
    Removing sht21.o(i.SHT21DataRead), (68 bytes).
    Removing sht21.o(i.SHT21DataTemperatureGetFloat), (148 bytes).
    Removing sht21.o(i.SHT21DataTemperatureGetRaw), (12 bytes).
    Removing sht21.o(i.SHT21Init), (96 bytes).
    Removing sht21.o(i.SHT21Read), (84 bytes).
    Removing sht21.o(i.SHT21ReadModifyWrite), (80 bytes).
    Removing sht21.o(i.SHT21Write), (80 bytes).
    Removing tmp006.o(i.TMP006Callback), (112 bytes).
    Removing tmp006.o(i.TMP006DataRead), (76 bytes).
    Removing tmp006.o(i.TMP006DataTemperatureGetFloat), (680 bytes).
    Removing tmp006.o(i.TMP006DataTemperatureGetRaw), (28 bytes).
    Removing tmp006.o(i.TMP006Init), (116 bytes).
    Removing tmp006.o(i.TMP006Read), (80 bytes).
    Removing tmp006.o(i.TMP006ReadModifyWrite), (108 bytes).
    Removing tmp006.o(i.TMP006Write), (80 bytes).
    Removing tmp100.o(i.TMP100Callback), (66 bytes).
    Removing tmp100.o(i.TMP100DataRead), (76 bytes).
    Removing tmp100.o(i.TMP100DataTemperatureGetFloat), (76 bytes).
    Removing tmp100.o(i.TMP100DataTemperatureGetRaw), (14 bytes).
    Removing tmp100.o(i.TMP100Init), (72 bytes).
    Removing tmp100.o(i.TMP100Read), (120 bytes).
    Removing tmp100.o(i.TMP100ReadModifyWrite), (148 bytes).
    Removing tmp100.o(i.TMP100Write), (120 bytes).
    Removing vector.o(i.VectorAdd), (50 bytes).
    Removing vector.o(i.VectorCrossProduct), (86 bytes).
    Removing vector.o(i.VectorDotProduct), (38 bytes).
    Removing vector.o(i.VectorScale), (38 bytes).
    Removing system_tm4c123.o(.rev16_text), (4 bytes).
    Removing system_tm4c123.o(.revsh_text), (4 bytes).
    Removing system_tm4c123.o(.rrx_text), (6 bytes).
    Removing system_tm4c123.o(i.SystemCoreClockUpdate), (196 bytes).
    Removing system_tm4c123.o(i.getOscClk), (248 bytes).
    Removing system_tm4c123.o(.data), (4 bytes).
    Removing i2cm_drv.o(i.I2CMWriteBatched), (56 bytes).
    Removing i2cm_drv.o(i.I2CMReadBatched), (50 bytes).
    Removing i2cm_drv.o(i.I2CMReadModifyWrite16BE), (64 bytes).

1130 unused section(s) (total 51839 bytes) removed from the image.

==============================================================================

Image Symbol Table

    Local Symbols

    Symbol Name                              Value     Ov Type        Size  Object(Section)

    RESET                                    0x00000000   Section      620  startup_tm4c123.o(RESET)
    ../clib/angel/boardlib.s                 0x00000000   Number         0  boardinit3.o ABSOLUTE
    ../clib/angel/boardlib.s                 0x00000000   Number         0  boardshut.o ABSOLUTE
    ../clib/angel/boardlib.s                 0x00000000   Number         0  boardinit2.o ABSOLUTE
    ../clib/angel/boardlib.s                 0x00000000   Number         0  boardinit1.o ABSOLUTE
    ../clib/angel/dczerorl.s                 0x00000000   Number         0  __dczerorl.o ABSOLUTE
    ../clib/angel/handlers.s                 0x00000000   Number         0  __scatter_zi.o ABSOLUTE
    ../clib/angel/kernel.s                   0x00000000   Number         0  rtexit2.o ABSOLUTE
    ../clib/angel/kernel.s                   0x00000000   Number         0  __rtentry.o ABSOLUTE
    ../clib/angel/kernel.s                   0x00000000   Number         0  rtexit.o ABSOLUTE
    ../clib/angel/kernel.s                   0x00000000   Number         0  __rtentry4.o ABSOLUTE
    ../clib/angel/kernel.s                   0x00000000   Number         0  __rtentry2.o ABSOLUTE
    ../clib/angel/rt.s                       0x00000000   Number         0  rt_raise.o ABSOLUTE
    ../clib/angel/rt.s                       0x00000000   Number         0  rt_ctype_table.o ABSOLUTE
    ../clib/angel/rt.s                       0x00000000   Number         0  rt_locale.o ABSOLUTE
    ../clib/angel/rt.s                       0x00000000   Number         0  rt_locale_intlibspace.o ABSOLUTE
    ../clib/angel/rt.s                       0x00000000   Number         0  rt_errno_addr_intlibspace.o ABSOLUTE
    ../clib/angel/rt.s                       0x00000000   Number         0  rt_errno_addr.o ABSOLUTE
    ../clib/angel/scatter.s                  0x00000000   Number         0  __scatter.o ABSOLUTE
    ../clib/angel/startup.s                  0x00000000   Number         0  __main.o ABSOLUTE
    ../clib/angel/sys.s                      0x00000000   Number         0  libspace.o ABSOLUTE
    ../clib/angel/sys.s                      0x00000000   Number         0  sys_stackheap_outer.o ABSOLUTE
    ../clib/angel/sys.s                      0x00000000   Number         0  use_no_semi.o ABSOLUTE
    ../clib/angel/sys.s                      0x00000000   Number         0  indicate_semi.o ABSOLUTE
    ../clib/angel/sysapp.c                   0x00000000   Number         0  sys_exit.o ABSOLUTE
    ../clib/angel/sysapp.c                   0x00000000   Number         0  sys_wrch.o ABSOLUTE
    ../clib/angel/sysapp.c                   0x00000000   Number         0  sys_command.o ABSOLUTE
    ../clib/armsys.c                         0x00000000   Number         0  no_argv.o ABSOLUTE
    ../clib/armsys.c                         0x00000000   Number         0  _get_argv_nomalloc.o ABSOLUTE
    ../clib/armsys.c                         0x00000000   Number         0  argv_veneer.o ABSOLUTE
    ../clib/armsys.c                         0x00000000   Number         0  argv_veneer.o ABSOLUTE
    ../clib/bigflt.c                         0x00000000   Number         0  bigflt0.o ABSOLUTE
    ../clib/btod.s                           0x00000000   Number         0  btod.o ABSOLUTE
    ../clib/fenv.c                           0x00000000   Number         0  _rserrno.o ABSOLUTE
    ../clib/heapalloc.c                      0x00000000   Number         0  hrguard.o ABSOLUTE
    ../clib/heapaux.c                        0x00000000   Number         0  heapauxi.o ABSOLUTE
    ../clib/libinit.s                        0x00000000   Number         0  libinit.o ABSOLUTE
    ../clib/libinit.s                        0x00000000   Number         0  libinit2.o ABSOLUTE
    ../clib/libinit.s                        0x00000000   Number         0  libshutdown2.o ABSOLUTE
    ../clib/libinit.s                        0x00000000   Number         0  libshutdown.o ABSOLUTE
    ../clib/locale.c                         0x00000000   Number         0  _wcrtomb.o ABSOLUTE
    ../clib/locale.s                         0x00000000   Number         0  lc_numeric_c.o ABSOLUTE
    ../clib/locale.s                         0x00000000   Number         0  lc_ctype_c.o ABSOLUTE
    ../clib/longlong.s                       0x00000000   Number         0  lludiv10.o ABSOLUTE
    ../clib/memcpset.s                       0x00000000   Number         0  strcmpv7m.o ABSOLUTE
    ../clib/misc.s                           0x00000000   Number         0  printf_stubs.o ABSOLUTE
    ../clib/printf.c                         0x00000000   Number         0  _printf_hex_int_ptr.o ABSOLUTE
    ../clib/printf.c                         0x00000000   Number         0  _printf_hex_ll_ptr.o ABSOLUTE
    ../clib/printf.c                         0x00000000   Number         0  _printf_hex_int.o ABSOLUTE
    ../clib/printf.c                         0x00000000   Number         0  __printf_flags.o ABSOLUTE
    ../clib/printf.c                         0x00000000   Number         0  _printf_wctomb.o ABSOLUTE
    ../clib/printf.c                         0x00000000   Number         0  _sputc.o ABSOLUTE
    ../clib/printf.c                         0x00000000   Number         0  _printf_char_common.o ABSOLUTE
    ../clib/printf.c                         0x00000000   Number         0  _printf_charcount.o ABSOLUTE
    ../clib/printf.c                         0x00000000   Number         0  _printf_dec.o ABSOLUTE
    ../clib/printf.c                         0x00000000   Number         0  _printf_fp_infnan.o ABSOLUTE
    ../clib/printf.c                         0x00000000   Number         0  _snputc.o ABSOLUTE
    ../clib/printf.c                         0x00000000   Number         0  _printf_truncate.o ABSOLUTE
    ../clib/printf.c                         0x00000000   Number         0  _printf_pad.o ABSOLUTE
    ../clib/printf.c                         0x00000000   Number         0  __printf.o ABSOLUTE
    ../clib/printf.c                         0x00000000   Number         0  _printf_oct_ll.o ABSOLUTE
    ../clib/printf.c                         0x00000000   Number         0  _printf_fp_dec.o ABSOLUTE
    ../clib/printf.c                         0x00000000   Number         0  _printf_str.o ABSOLUTE
    ../clib/printf.c                         0x00000000   Number         0  _printf_oct_int.o ABSOLUTE
    ../clib/printf.c                         0x00000000   Number         0  __printf_ss.o ABSOLUTE
    ../clib/printf.c                         0x00000000   Number         0  _printf_wchar.o ABSOLUTE
    ../clib/printf.c                         0x00000000   Number         0  _printf_oct_int_ll.o ABSOLUTE
    ../clib/printf.c                         0x00000000   Number         0  _printf_char.o ABSOLUTE
    ../clib/printf.c                         0x00000000   Number         0  __printf_nopercent.o ABSOLUTE
    ../clib/printf.c                         0x00000000   Number         0  _printf_hex_ll.o ABSOLUTE
    ../clib/printf.c                         0x00000000   Number         0  _printf_longlong_dec.o ABSOLUTE
    ../clib/printf.c                         0x00000000   Number         0  _printf_fp_hex.o ABSOLUTE
    ../clib/printf.c                         0x00000000   Number         0  vsnprintf.o ABSOLUTE
    ../clib/printf.c                         0x00000000   Number         0  __printf_wp.o ABSOLUTE
    ../clib/printf.c                         0x00000000   Number         0  _printf_hex_int_ll.o ABSOLUTE
    ../clib/printf.c                         0x00000000   Number         0  __printf_flags_ss.o ABSOLUTE
    ../clib/printf.c                         0x00000000   Number         0  __printf_ss_wp.o ABSOLUTE
    ../clib/printf.c                         0x00000000   Number         0  __printf_flags_ss_wp.o ABSOLUTE
    ../clib/printf.c                         0x00000000   Number         0  _printf_hex_int_ll_ptr.o ABSOLUTE
    ../clib/printf.c                         0x00000000   Number         0  _printf_hex_ptr.o ABSOLUTE
    ../clib/printf.c                         0x00000000   Number         0  _printf_intcommon.o ABSOLUTE
    ../clib/printf.c                         0x00000000   Number         0  __printf_flags_wp.o ABSOLUTE
    ../clib/printf_percent.s                 0x00000000   Number         0  _printf_d.o ABSOLUTE
    ../clib/printf_percent.s                 0x00000000   Number         0  _printf_n.o ABSOLUTE
    ../clib/printf_percent.s                 0x00000000   Number         0  _printf_i.o ABSOLUTE
    ../clib/printf_percent.s                 0x00000000   Number         0  _printf_o.o ABSOLUTE
    ../clib/printf_percent.s                 0x00000000   Number         0  _printf_p.o ABSOLUTE
    ../clib/printf_percent.s                 0x00000000   Number         0  _printf_s.o ABSOLUTE
    ../clib/printf_percent.s                 0x00000000   Number         0  _printf_c.o ABSOLUTE
    ../clib/printf_percent.s                 0x00000000   Number         0  _printf_x.o ABSOLUTE
    ../clib/printf_percent.s                 0x00000000   Number         0  _printf_percent_end.o ABSOLUTE
    ../clib/printf_percent.s                 0x00000000   Number         0  _printf_llx.o ABSOLUTE
    ../clib/printf_percent.s                 0x00000000   Number         0  _printf_llo.o ABSOLUTE
    ../clib/printf_percent.s                 0x00000000   Number         0  _printf_ls.o ABSOLUTE
    ../clib/printf_percent.s                 0x00000000   Number         0  _printf_lc.o ABSOLUTE
    ../clib/printf_percent.s                 0x00000000   Number         0  _printf_l.o ABSOLUTE
    ../clib/printf_percent.s                 0x00000000   Number         0  _printf_ll.o ABSOLUTE
    ../clib/printf_percent.s                 0x00000000   Number         0  _printf_llu.o ABSOLUTE
    ../clib/printf_percent.s                 0x00000000   Number         0  _printf_lld.o ABSOLUTE
    ../clib/printf_percent.s                 0x00000000   Number         0  _printf_lli.o ABSOLUTE
    ../clib/printf_percent.s                 0x00000000   Number         0  _printf_percent.o ABSOLUTE
    ../clib/printf_percent.s                 0x00000000   Number         0  _printf_a.o ABSOLUTE
    ../clib/printf_percent.s                 0x00000000   Number         0  _printf_g.o ABSOLUTE
    ../clib/printf_percent.s                 0x00000000   Number         0  _printf_e.o ABSOLUTE
    ../clib/printf_percent.s                 0x00000000   Number         0  _printf_f.o ABSOLUTE
    ../clib/printf_percent.s                 0x00000000   Number         0  _printf_u.o ABSOLUTE
    ../clib/signal.c                         0x00000000   Number         0  defsig_rtred_inner.o ABSOLUTE
    ../clib/signal.c                         0x00000000   Number         0  __raise.o ABSOLUTE
    ../clib/signal.c                         0x00000000   Number         0  defsig_rtmem_inner.o ABSOLUTE
    ../clib/signal.c                         0x00000000   Number         0  defsig_fpe_inner.o ABSOLUTE
    ../clib/signal.c                         0x00000000   Number         0  defsig_abrt_inner.o ABSOLUTE
    ../clib/signal.c                         0x00000000   Number         0  defsig_general.o ABSOLUTE
    ../clib/signal.c                         0x00000000   Number         0  defsig_exit.o ABSOLUTE
    ../clib/signal.c                         0x00000000   Number         0  defsig_rtmem_outer.o ABSOLUTE
    ../clib/signal.c                         0x00000000   Number         0  defsig_other.o ABSOLUTE
    ../clib/signal.c                         0x00000000   Number         0  defsig_segv_inner.o ABSOLUTE
    ../clib/signal.c                         0x00000000   Number         0  defsig_cppl_inner.o ABSOLUTE
    ../clib/signal.c                         0x00000000   Number         0  defsig_pvfn_inner.o ABSOLUTE
    ../clib/signal.c                         0x00000000   Number         0  defsig_rtmem_formal.o ABSOLUTE
    ../clib/signal.c                         0x00000000   Number         0  defsig_stak_inner.o ABSOLUTE
    ../clib/signal.s                         0x00000000   Number         0  defsig.o ABSOLUTE
    ../clib/stdlib.c                         0x00000000   Number         0  exit.o ABSOLUTE
    ../fplib/d2f.s                           0x00000000   Number         0  d2f.o ABSOLUTE
    ../fplib/daddsub.s                       0x00000000   Number         0  daddsub_clz.o ABSOLUTE
    ../fplib/ddiv.s                          0x00000000   Number         0  ddiv.o ABSOLUTE
    ../fplib/dmul.s                          0x00000000   Number         0  dmul.o ABSOLUTE
    ../fplib/dnaninf.s                       0x00000000   Number         0  dnaninf.o ABSOLUTE
    ../fplib/dretinf.s                       0x00000000   Number         0  dretinf.o ABSOLUTE
    ../fplib/f2d.s                           0x00000000   Number         0  f2d.o ABSOLUTE
    ../fplib/fnaninf.s                       0x00000000   Number         0  fnaninf.o ABSOLUTE
    ../fplib/fpinit.s                        0x00000000   Number         0  fpinit.o ABSOLUTE
    ../fplib/fretinf.s                       0x00000000   Number         0  fretinf.o ABSOLUTE
    ../fplib/istatus.s                       0x00000000   Number         0  istatus.o ABSOLUTE
    ../fplib/printf1.s                       0x00000000   Number         0  printf1.o ABSOLUTE
    ../fplib/printf2.s                       0x00000000   Number         0  printf2.o ABSOLUTE
    ../fplib/printf2a.s                      0x00000000   Number         0  printf2a.o ABSOLUTE
    ../fplib/printf2b.s                      0x00000000   Number         0  printf2b.o ABSOLUTE
    ../fplib/usenofp.s                       0x00000000   Number         0  usenofp.o ABSOLUTE
    ../mathlib/acosf.c                       0x00000000   Number         0  acosf.o ABSOLUTE
    ../mathlib/acosf.c                       0x00000000   Number         0  acosf_x.o ABSOLUTE
    ../mathlib/asinf.c                       0x00000000   Number         0  asinf_x.o ABSOLUTE
    ../mathlib/asinf.c                       0x00000000   Number         0  asinf.o ABSOLUTE
    ../mathlib/atan2f.c                      0x00000000   Number         0  atan2f.o ABSOLUTE
    ../mathlib/atan2f.c                      0x00000000   Number         0  atan2f_x.o ABSOLUTE
    ../mathlib/cosf.c                        0x00000000   Number         0  cosf_x.o ABSOLUTE
    ../mathlib/cosf.c                        0x00000000   Number         0  cosf.o ABSOLUTE
    ../mathlib/fpclassify.c                  0x00000000   Number         0  fpclassify.o ABSOLUTE
    ../mathlib/fpclassifyf.c                 0x00000000   Number         0  fpclassifyf.o ABSOLUTE
    ../mathlib/funder.c                      0x00000000   Number         0  funder.o ABSOLUTE
    ../mathlib/rredf.c                       0x00000000   Number         0  rredf.o ABSOLUTE
    ../mathlib/sinf.c                        0x00000000   Number         0  sinf.o ABSOLUTE
    ../mathlib/sinf.c                        0x00000000   Number         0  sinf_x.o ABSOLUTE
    ../mathlib/sqrtf.c                       0x00000000   Number         0  sqrtf.o ABSOLUTE
    ../mathlib/sqrtf.c                       0x00000000   Number         0  sqrtf_x.o ABSOLUTE
    RTE\Device\TM4C123GH6PM\startup_TM4C123.s 0x00000000   Number         0  startup_tm4c123.o ABSOLUTE
    RTE\Device\TM4C123GH6PM\system_TM4C123.c 0x00000000   Number         0  system_tm4c123.o ABSOLUTE
    RTE\\Device\\TM4C123GH6PM\\system_TM4C123.c 0x00000000   Number         0  system_tm4c123.o ABSOLUTE
    dc.s                                     0x00000000   Number         0  dc.o ABSOLUTE
    delays.c                                 0x00000000   Number         0  delays.o ABSOLUTE
    driverlib\\cpu.c                         0x00000000   Number         0  cpu.o ABSOLUTE
    driverlib\\sysctl.c                      0x00000000   Number         0  sysctl.o ABSOLUTE
    driverlib\adc.c                          0x00000000   Number         0  adc.o ABSOLUTE
    driverlib\aes.c                          0x00000000   Number         0  aes.o ABSOLUTE
    driverlib\can.c                          0x00000000   Number         0  can.o ABSOLUTE
    driverlib\comp.c                         0x00000000   Number         0  comp.o ABSOLUTE
    driverlib\cpu.c                          0x00000000   Number         0  cpu.o ABSOLUTE
    driverlib\crc.c                          0x00000000   Number         0  crc.o ABSOLUTE
    driverlib\des.c                          0x00000000   Number         0  des.o ABSOLUTE
    driverlib\eeprom.c                       0x00000000   Number         0  eeprom.o ABSOLUTE
    driverlib\emac.c                         0x00000000   Number         0  emac.o ABSOLUTE
    driverlib\epi.c                          0x00000000   Number         0  epi.o ABSOLUTE
    driverlib\flash.c                        0x00000000   Number         0  flash.o ABSOLUTE
    driverlib\fpu.c                          0x00000000   Number         0  fpu.o ABSOLUTE
    driverlib\gpio.c                         0x00000000   Number         0  gpio.o ABSOLUTE
    driverlib\hibernate.c                    0x00000000   Number         0  hibernate.o ABSOLUTE
    driverlib\i2c.c                          0x00000000   Number         0  i2c.o ABSOLUTE
    driverlib\interrupt.c                    0x00000000   Number         0  interrupt.o ABSOLUTE
    driverlib\lcd.c                          0x00000000   Number         0  lcd.o ABSOLUTE
    driverlib\mpu.c                          0x00000000   Number         0  mpu.o ABSOLUTE
    driverlib\onewire.c                      0x00000000   Number         0  onewire.o ABSOLUTE
    driverlib\pwm.c                          0x00000000   Number         0  pwm.o ABSOLUTE
    driverlib\qei.c                          0x00000000   Number         0  qei.o ABSOLUTE
    driverlib\shamd5.c                       0x00000000   Number         0  shamd5.o ABSOLUTE
    driverlib\ssi.c                          0x00000000   Number         0  ssi.o ABSOLUTE
    driverlib\sw_crc.c                       0x00000000   Number         0  sw_crc.o ABSOLUTE
    driverlib\sysctl.c                       0x00000000   Number         0  sysctl.o ABSOLUTE
    driverlib\sysexc.c                       0x00000000   Number         0  sysexc.o ABSOLUTE
    driverlib\systick.c                      0x00000000   Number         0  systick.o ABSOLUTE
    driverlib\timer.c                        0x00000000   Number         0  timer.o ABSOLUTE
    driverlib\uart.c                         0x00000000   Number         0  uart.o ABSOLUTE
    driverlib\udma.c                         0x00000000   Number         0  udma.o ABSOLUTE
    driverlib\usb.c                          0x00000000   Number         0  usb.o ABSOLUTE
    driverlib\watchdog.c                     0x00000000   Number         0  watchdog.o ABSOLUTE
    main.c                                   0x00000000   Number         0  main.o ABSOLUTE
    padcontroller.c                          0x00000000   Number         0  padcontroller.o ABSOLUTE
    sensorinit.c                             0x00000000   Number         0  sensorinit.o ABSOLUTE
    sensorlib\ak8963.c                       0x00000000   Number         0  ak8963.o ABSOLUTE
    sensorlib\ak8975.c                       0x00000000   Number         0  ak8975.o ABSOLUTE
    sensorlib\bmp180.c                       0x00000000   Number         0  bmp180.o ABSOLUTE
    sensorlib\bq27510g3.c                    0x00000000   Number         0  bq27510g3.o ABSOLUTE
    sensorlib\cm3218.c                       0x00000000   Number         0  cm3218.o ABSOLUTE
    sensorlib\comp_dcm.c                     0x00000000   Number         0  comp_dcm.o ABSOLUTE
    sensorlib\i2cm_drv.c                     0x00000000   Number         0  i2cm_drv.o ABSOLUTE
    sensorlib\isl29023.c                     0x00000000   Number         0  isl29023.o ABSOLUTE
    sensorlib\kxti9.c                        0x00000000   Number         0  kxti9.o ABSOLUTE
    sensorlib\l3gd20h.c                      0x00000000   Number         0  l3gd20h.o ABSOLUTE
    sensorlib\lsm303d.c                      0x00000000   Number         0  lsm303d.o ABSOLUTE
    sensorlib\lsm303dlhc_accel.c             0x00000000   Number         0  lsm303dlhc_accel.o ABSOLUTE
    sensorlib\lsm303dlhc_mag.c               0x00000000   Number         0  lsm303dlhc_mag.o ABSOLUTE
    sensorlib\magneto.c                      0x00000000   Number         0  magneto.o ABSOLUTE
    sensorlib\mpu6050.c                      0x00000000   Number         0  mpu6050.o ABSOLUTE
    sensorlib\mpu9150.c                      0x00000000   Number         0  mpu9150.o ABSOLUTE
    sensorlib\quaternion.c                   0x00000000   Number         0  quaternion.o ABSOLUTE
    sensorlib\sht21.c                        0x00000000   Number         0  sht21.o ABSOLUTE
    sensorlib\tmp006.c                       0x00000000   Number         0  tmp006.o ABSOLUTE
    sensorlib\tmp100.c                       0x00000000   Number         0  tmp100.o ABSOLUTE
    sensorlib\vector.c                       0x00000000   Number         0  vector.o ABSOLUTE
    utils\uartstdio.c                        0x00000000   Number         0  uartstdio.o ABSOLUTE
    !!!main                                  0x0000026c   Section        8  __main.o(!!!main)
    !!!scatter                               0x00000274   Section       52  __scatter.o(!!!scatter)
    !!dczerorl                               0x000002a8   Section       58  __dczerorl.o(!!dczerorl)
    !!handler_zi                             0x000002e4   Section       28  __scatter_zi.o(!!handler_zi)
    .ARM.Collect$$_printf_percent$$00000000  0x00000300   Section        0  _printf_percent.o(.ARM.Collect$$_printf_percent$$00000000)
    .ARM.Collect$$_printf_percent$$00000001  0x00000300   Section        6  _printf_n.o(.ARM.Collect$$_printf_percent$$00000001)
    .ARM.Collect$$_printf_percent$$00000002  0x00000306   Section        6  _printf_p.o(.ARM.Collect$$_printf_percent$$00000002)
    .ARM.Collect$$_printf_percent$$00000003  0x0000030c   Section        6  _printf_f.o(.ARM.Collect$$_printf_percent$$00000003)
    .ARM.Collect$$_printf_percent$$00000004  0x00000312   Section        6  _printf_e.o(.ARM.Collect$$_printf_percent$$00000004)
    .ARM.Collect$$_printf_percent$$00000005  0x00000318   Section        6  _printf_g.o(.ARM.Collect$$_printf_percent$$00000005)
    .ARM.Collect$$_printf_percent$$00000006  0x0000031e   Section        6  _printf_a.o(.ARM.Collect$$_printf_percent$$00000006)
    .ARM.Collect$$_printf_percent$$00000007  0x00000324   Section       10  _printf_ll.o(.ARM.Collect$$_printf_percent$$00000007)
    .ARM.Collect$$_printf_percent$$00000008  0x0000032e   Section        6  _printf_i.o(.ARM.Collect$$_printf_percent$$00000008)
    .ARM.Collect$$_printf_percent$$00000009  0x00000334   Section        6  _printf_d.o(.ARM.Collect$$_printf_percent$$00000009)
    .ARM.Collect$$_printf_percent$$0000000A  0x0000033a   Section        6  _printf_u.o(.ARM.Collect$$_printf_percent$$0000000A)
    .ARM.Collect$$_printf_percent$$0000000B  0x00000340   Section        6  _printf_o.o(.ARM.Collect$$_printf_percent$$0000000B)
    .ARM.Collect$$_printf_percent$$0000000C  0x00000346   Section        6  _printf_x.o(.ARM.Collect$$_printf_percent$$0000000C)
    .ARM.Collect$$_printf_percent$$0000000D  0x0000034c   Section        6  _printf_lli.o(.ARM.Collect$$_printf_percent$$0000000D)
    .ARM.Collect$$_printf_percent$$0000000E  0x00000352   Section        6  _printf_lld.o(.ARM.Collect$$_printf_percent$$0000000E)
    .ARM.Collect$$_printf_percent$$0000000F  0x00000358   Section        6  _printf_llu.o(.ARM.Collect$$_printf_percent$$0000000F)
    .ARM.Collect$$_printf_percent$$00000010  0x0000035e   Section        6  _printf_llo.o(.ARM.Collect$$_printf_percent$$00000010)
    .ARM.Collect$$_printf_percent$$00000011  0x00000364   Section        6  _printf_llx.o(.ARM.Collect$$_printf_percent$$00000011)
    .ARM.Collect$$_printf_percent$$00000012  0x0000036a   Section       10  _printf_l.o(.ARM.Collect$$_printf_percent$$00000012)
    .ARM.Collect$$_printf_percent$$00000013  0x00000374   Section        6  _printf_c.o(.ARM.Collect$$_printf_percent$$00000013)
    .ARM.Collect$$_printf_percent$$00000014  0x0000037a   Section        6  _printf_s.o(.ARM.Collect$$_printf_percent$$00000014)
    .ARM.Collect$$_printf_percent$$00000015  0x00000380   Section        6  _printf_lc.o(.ARM.Collect$$_printf_percent$$00000015)
    .ARM.Collect$$_printf_percent$$00000016  0x00000386   Section        6  _printf_ls.o(.ARM.Collect$$_printf_percent$$00000016)
    .ARM.Collect$$_printf_percent$$00000017  0x0000038c   Section        4  _printf_percent_end.o(.ARM.Collect$$_printf_percent$$00000017)
    .ARM.Collect$$libinit$$00000000          0x00000390   Section        2  libinit.o(.ARM.Collect$$libinit$$00000000)
    .ARM.Collect$$libinit$$00000001          0x00000392   Section        4  libinit2.o(.ARM.Collect$$libinit$$00000001)
    .ARM.Collect$$libinit$$00000004          0x00000396   Section        0  libinit2.o(.ARM.Collect$$libinit$$00000004)
    .ARM.Collect$$libinit$$0000000A          0x00000396   Section        0  libinit2.o(.ARM.Collect$$libinit$$0000000A)
    .ARM.Collect$$libinit$$0000000C          0x00000396   Section        0  libinit2.o(.ARM.Collect$$libinit$$0000000C)
    .ARM.Collect$$libinit$$0000000E          0x00000396   Section        0  libinit2.o(.ARM.Collect$$libinit$$0000000E)
    .ARM.Collect$$libinit$$0000000F          0x00000396   Section        6  libinit2.o(.ARM.Collect$$libinit$$0000000F)
    .ARM.Collect$$libinit$$00000011          0x0000039c   Section        0  libinit2.o(.ARM.Collect$$libinit$$00000011)
    .ARM.Collect$$libinit$$00000012          0x0000039c   Section       12  libinit2.o(.ARM.Collect$$libinit$$00000012)
    .ARM.Collect$$libinit$$00000013          0x000003a8   Section        0  libinit2.o(.ARM.Collect$$libinit$$00000013)
    .ARM.Collect$$libinit$$00000015          0x000003a8   Section        0  libinit2.o(.ARM.Collect$$libinit$$00000015)
    .ARM.Collect$$libinit$$00000016          0x000003a8   Section       10  libinit2.o(.ARM.Collect$$libinit$$00000016)
    .ARM.Collect$$libinit$$00000017          0x000003b2   Section        0  libinit2.o(.ARM.Collect$$libinit$$00000017)
    .ARM.Collect$$libinit$$00000019          0x000003b2   Section        0  libinit2.o(.ARM.Collect$$libinit$$00000019)
    .ARM.Collect$$libinit$$0000001B          0x000003b2   Section        0  libinit2.o(.ARM.Collect$$libinit$$0000001B)
    .ARM.Collect$$libinit$$0000001D          0x000003b2   Section        0  libinit2.o(.ARM.Collect$$libinit$$0000001D)
    .ARM.Collect$$libinit$$0000001F          0x000003b2   Section        0  libinit2.o(.ARM.Collect$$libinit$$0000001F)
    .ARM.Collect$$libinit$$00000021          0x000003b2   Section        0  libinit2.o(.ARM.Collect$$libinit$$00000021)
    .ARM.Collect$$libinit$$00000023          0x000003b2   Section        0  libinit2.o(.ARM.Collect$$libinit$$00000023)
    .ARM.Collect$$libinit$$00000025          0x000003b2   Section        0  libinit2.o(.ARM.Collect$$libinit$$00000025)
    .ARM.Collect$$libinit$$0000002C          0x000003b2   Section        0  libinit2.o(.ARM.Collect$$libinit$$0000002C)
    .ARM.Collect$$libinit$$0000002E          0x000003b2   Section        0  libinit2.o(.ARM.Collect$$libinit$$0000002E)
    .ARM.Collect$$libinit$$00000030          0x000003b2   Section        0  libinit2.o(.ARM.Collect$$libinit$$00000030)
    .ARM.Collect$$libinit$$00000032          0x000003b2   Section        0  libinit2.o(.ARM.Collect$$libinit$$00000032)
    .ARM.Collect$$libinit$$00000033          0x000003b2   Section        2  libinit2.o(.ARM.Collect$$libinit$$00000033)
    .ARM.Collect$$libshutdown$$00000000      0x000003b4   Section        2  libshutdown.o(.ARM.Collect$$libshutdown$$00000000)
    .ARM.Collect$$libshutdown$$00000002      0x000003b6   Section        0  libshutdown2.o(.ARM.Collect$$libshutdown$$00000002)
    .ARM.Collect$$libshutdown$$00000004      0x000003b6   Section        0  libshutdown2.o(.ARM.Collect$$libshutdown$$00000004)
    .ARM.Collect$$libshutdown$$00000007      0x000003b6   Section        0  libshutdown2.o(.ARM.Collect$$libshutdown$$00000007)
    .ARM.Collect$$libshutdown$$0000000A      0x000003b6   Section        0  libshutdown2.o(.ARM.Collect$$libshutdown$$0000000A)
    .ARM.Collect$$libshutdown$$0000000C      0x000003b6   Section        0  libshutdown2.o(.ARM.Collect$$libshutdown$$0000000C)
    .ARM.Collect$$libshutdown$$0000000F      0x000003b6   Section        0  libshutdown2.o(.ARM.Collect$$libshutdown$$0000000F)
    .ARM.Collect$$libshutdown$$00000010      0x000003b6   Section        2  libshutdown2.o(.ARM.Collect$$libshutdown$$00000010)
    .ARM.Collect$$rtentry$$00000000          0x000003b8   Section        0  __rtentry.o(.ARM.Collect$$rtentry$$00000000)
    .ARM.Collect$$rtentry$$00000002          0x000003b8   Section        0  __rtentry2.o(.ARM.Collect$$rtentry$$00000002)
    .ARM.Collect$$rtentry$$00000004          0x000003b8   Section        6  __rtentry4.o(.ARM.Collect$$rtentry$$00000004)
    .ARM.Collect$$rtentry$$00000009          0x000003be   Section        0  __rtentry2.o(.ARM.Collect$$rtentry$$00000009)
    .ARM.Collect$$rtentry$$0000000A          0x000003be   Section        4  __rtentry2.o(.ARM.Collect$$rtentry$$0000000A)
    .ARM.Collect$$rtentry$$0000000C          0x000003c2   Section        0  __rtentry2.o(.ARM.Collect$$rtentry$$0000000C)
    .ARM.Collect$$rtentry$$0000000D          0x000003c2   Section        8  __rtentry2.o(.ARM.Collect$$rtentry$$0000000D)
    .ARM.Collect$$rtexit$$00000000           0x000003ca   Section        2  rtexit.o(.ARM.Collect$$rtexit$$00000000)
    .ARM.Collect$$rtexit$$00000002           0x000003cc   Section        0  rtexit2.o(.ARM.Collect$$rtexit$$00000002)
    .ARM.Collect$$rtexit$$00000003           0x000003cc   Section        4  rtexit2.o(.ARM.Collect$$rtexit$$00000003)
    .ARM.Collect$$rtexit$$00000004           0x000003d0   Section        6  rtexit2.o(.ARM.Collect$$rtexit$$00000004)
    .text                                    0x000003d8   Section      276  startup_tm4c123.o(.text)
    $v0                                      0x000003d8   Number         0  startup_tm4c123.o(.text)
    .text                                    0x000004ec   Section        0  vsnprintf.o(.text)
    .text                                    0x00000520   Section        0  heapauxi.o(.text)
    .text                                    0x00000526   Section        0  _printf_pad.o(.text)
    .text                                    0x00000574   Section        0  _printf_truncate.o(.text)
    .text                                    0x00000598   Section        0  _printf_str.o(.text)
    .text                                    0x000005ec   Section        0  _printf_dec.o(.text)
    .text                                    0x00000664   Section        0  _printf_charcount.o(.text)
    .text                                    0x0000068c   Section        0  _printf_char_common.o(.text)
    _printf_input_char                       0x0000068d   Thumb Code    10  _printf_char_common.o(.text)
    .text                                    0x000006bc   Section        0  _sputc.o(.text)
    .text                                    0x000006c6   Section        0  _snputc.o(.text)
    .text                                    0x000006d8   Section        0  _printf_wctomb.o(.text)
    .text                                    0x00000794   Section        0  _printf_longlong_dec.o(.text)
    .text                                    0x00000810   Section        0  _printf_oct_int_ll.o(.text)
    _printf_longlong_oct_internal            0x00000811   Thumb Code     0  _printf_oct_int_ll.o(.text)
    .text                                    0x00000880   Section        0  _printf_hex_int_ll_ptr.o(.text)
    _printf_hex_common                       0x00000881   Thumb Code     0  _printf_hex_int_ll_ptr.o(.text)
    .text                                    0x00000914   Section        0  __printf_flags_ss_wp.o(.text)
    .text                                    0x00000a9c   Section      138  lludiv10.o(.text)
    .text                                    0x00000b26   Section        0  _printf_intcommon.o(.text)
    .text                                    0x00000bd8   Section        0  _printf_fp_dec.o(.text)
    _fp_digits                               0x00000bdb   Thumb Code   428  _printf_fp_dec.o(.text)
    .text                                    0x00000ff4   Section        0  _printf_fp_hex.o(.text)
    .text                                    0x000012f0   Section        0  _printf_char.o(.text)
    .text                                    0x0000131c   Section        0  _printf_wchar.o(.text)
    .text                                    0x00001348   Section        0  _wcrtomb.o(.text)
    .text                                    0x00001388   Section        8  libspace.o(.text)
    .text                                    0x00001390   Section       74  sys_stackheap_outer.o(.text)
    .text                                    0x000013dc   Section       16  rt_ctype_table.o(.text)
    .text                                    0x000013ec   Section        8  rt_locale_intlibspace.o(.text)
    .text                                    0x000013f4   Section        0  _printf_fp_infnan.o(.text)
    .text                                    0x00001474   Section        0  bigflt0.o(.text)
    .text                                    0x00001550   Section        0  exit.o(.text)
    .text                                    0x00001564   Section      128  strcmpv7m.o(.text)
    .text                                    0x000015e4   Section        0  sys_exit.o(.text)
    .text                                    0x000015f0   Section        2  use_no_semi.o(.text)
    .text                                    0x000015f2   Section        0  indicate_semi.o(.text)
    CL$$btod_d2e                             0x000015f2   Section       62  btod.o(CL$$btod_d2e)
    CL$$btod_d2e_denorm_low                  0x00001630   Section       70  btod.o(CL$$btod_d2e_denorm_low)
    CL$$btod_d2e_norm_op1                    0x00001676   Section       96  btod.o(CL$$btod_d2e_norm_op1)
    CL$$btod_div_common                      0x000016d6   Section      824  btod.o(CL$$btod_div_common)
    CL$$btod_e2e                             0x00001a0e   Section      198  btod.o(CL$$btod_e2e)
    CL$$btod_ediv                            0x00001ad4   Section       40  btod.o(CL$$btod_ediv)
    CL$$btod_emul                            0x00001afc   Section       40  btod.o(CL$$btod_emul)
    CL$$btod_mult_common                     0x00001b24   Section      580  btod.o(CL$$btod_mult_common)
    i.GPIODirModeSet                         0x00001d68   Section        0  gpio.o(i.GPIODirModeSet)
    i.GPIOPadConfigSet                       0x00001d9a   Section        0  gpio.o(i.GPIOPadConfigSet)
    i.GPIOPinConfigure                       0x00001ef0   Section        0  gpio.o(i.GPIOPinConfigure)
    i.GPIOPinTypeI2C                         0x00001f40   Section        0  gpio.o(i.GPIOPinTypeI2C)
    i.GPIOPinTypeI2CSCL                      0x00001f5e   Section        0  gpio.o(i.GPIOPinTypeI2CSCL)
    i.GPIOPinTypeUART                        0x00001f7c   Section        0  gpio.o(i.GPIOPinTypeUART)
    i.I2CIntRegister                         0x00001f9a   Section        0  i2c.o(i.I2CIntRegister)
    i.I2CMCommand                            0x00001fb8   Section        0  i2cm_drv.o(i.I2CMCommand)
    i.I2CMInit                               0x0000205a   Section        0  i2cm_drv.o(i.I2CMInit)
    i.I2CMIntHandler                         0x000020aa   Section        0  i2cm_drv.o(i.I2CMIntHandler)
    i.I2CMIntHandler_wrapper                 0x00002198   Section        0  sensorinit.o(i.I2CMIntHandler_wrapper)
    i.I2CMRead                               0x000021a8   Section        0  i2cm_drv.o(i.I2CMRead)
    i.I2CMReadModifyWrite8                   0x000021dc   Section        0  i2cm_drv.o(i.I2CMReadModifyWrite8)
    i.I2CMReadModifyWrite8Callback           0x0000225c   Section        0  i2cm_drv.o(i.I2CMReadModifyWrite8Callback)
    I2CMReadModifyWrite8Callback             0x0000225d   Thumb Code    88  i2cm_drv.o(i.I2CMReadModifyWrite8Callback)
    i.I2CMStateCallback                      0x000022b8   Section        0  i2cm_drv.o(i.I2CMStateCallback)
    I2CMStateCallback                        0x000022b9   Thumb Code    90  i2cm_drv.o(i.I2CMStateCallback)
    i.I2CMStateIdle                          0x00002312   Section        0  i2cm_drv.o(i.I2CMStateIdle)
    I2CMStateIdle                            0x00002313   Thumb Code   232  i2cm_drv.o(i.I2CMStateIdle)
    i.I2CMStateReadFinal                     0x000023fa   Section        0  i2cm_drv.o(i.I2CMStateReadFinal)
    I2CMStateReadFinal                       0x000023fb   Thumb Code    76  i2cm_drv.o(i.I2CMStateReadFinal)
    i.I2CMStateReadFirst                     0x00002446   Section        0  i2cm_drv.o(i.I2CMStateReadFirst)
    I2CMStateReadFirst                       0x00002447   Thumb Code    56  i2cm_drv.o(i.I2CMStateReadFirst)
    i.I2CMStateReadNext                      0x0000247e   Section        0  i2cm_drv.o(i.I2CMStateReadNext)
    I2CMStateReadNext                        0x0000247f   Thumb Code    86  i2cm_drv.o(i.I2CMStateReadNext)
    i.I2CMStateReadOne                       0x000024d4   Section        0  i2cm_drv.o(i.I2CMStateReadOne)
    I2CMStateReadOne                         0x000024d5   Thumb Code    46  i2cm_drv.o(i.I2CMStateReadOne)
    i.I2CMStateReadPause                     0x00002502   Section        0  i2cm_drv.o(i.I2CMStateReadPause)
    I2CMStateReadPause                       0x00002503   Thumb Code    84  i2cm_drv.o(i.I2CMStateReadPause)
    i.I2CMStateReadWait                      0x00002556   Section        0  i2cm_drv.o(i.I2CMStateReadWait)
    I2CMStateReadWait                        0x00002557   Thumb Code    30  i2cm_drv.o(i.I2CMStateReadWait)
    i.I2CMStateWriteFinal                    0x00002574   Section        0  i2cm_drv.o(i.I2CMStateWriteFinal)
    I2CMStateWriteFinal                      0x00002575   Thumb Code   104  i2cm_drv.o(i.I2CMStateWriteFinal)
    i.I2CMStateWriteNext                     0x000025dc   Section        0  i2cm_drv.o(i.I2CMStateWriteNext)
    I2CMStateWriteNext                       0x000025dd   Thumb Code    86  i2cm_drv.o(i.I2CMStateWriteNext)
    i.I2CMStateWritePause                    0x00002632   Section        0  i2cm_drv.o(i.I2CMStateWritePause)
    I2CMStateWritePause                      0x00002633   Thumb Code   132  i2cm_drv.o(i.I2CMStateWritePause)
    i.I2CMWrite                              0x000026b6   Section        0  i2cm_drv.o(i.I2CMWrite)
    i.I2CMasterEnable                        0x000026ea   Section        0  i2c.o(i.I2CMasterEnable)
    i.I2CMasterInitExpClk                    0x000026f4   Section        0  i2c.o(i.I2CMasterInitExpClk)
    i.InitConsole                            0x00002750   Section        0  main.o(i.InitConsole)
    i.InitI2C0                               0x0000279c   Section        0  sensorinit.o(i.InitI2C0)
    i.IntEnable                              0x00002804   Section        0  interrupt.o(i.IntEnable)
    i.IntRegister                            0x00002878   Section        0  interrupt.o(i.IntRegister)
    i.IntTrigger                             0x000028b4   Section        0  interrupt.o(i.IntTrigger)
    i.LSM303DLHCAccelDataAccelGetFloat       0x000028c4   Section        0  lsm303dlhc_accel.o(i.LSM303DLHCAccelDataAccelGetFloat)
    i.LSM303DLHCAccelDataRead                0x00002930   Section        0  lsm303dlhc_accel.o(i.LSM303DLHCAccelDataRead)
    i.LSM303DLHCAccelInit                    0x0000297c   Section        0  lsm303dlhc_accel.o(i.LSM303DLHCAccelInit)
    i.LSM303DLHCAccelReadModifyWrite         0x000029c8   Section        0  lsm303dlhc_accel.o(i.LSM303DLHCAccelReadModifyWrite)
    i.LSM303DLHCCallback                     0x00002a18   Section        0  lsm303dlhc_accel.o(i.LSM303DLHCCallback)
    LSM303DLHCCallback                       0x00002a19   Thumb Code   114  lsm303dlhc_accel.o(i.LSM303DLHCCallback)
    i.SysCtlClockGet                         0x00002a94   Section        0  sysctl.o(i.SysCtlClockGet)
    i.SysCtlPeripheralEnable                 0x00002c00   Section        0  sysctl.o(i.SysCtlPeripheralEnable)
    i.SysCtlPeripheralReset                  0x00002c34   Section        0  sysctl.o(i.SysCtlPeripheralReset)
    i.SystemInit                             0x00002ca4   Section        0  system_tm4c123.o(i.SystemInit)
    i.UARTClockSourceSet                     0x00002d3c   Section        0  uart.o(i.UARTClockSourceSet)
    i.UARTStdioConfig                        0x00002d44   Section        0  uartstdio.o(i.UARTStdioConfig)
    i.UARTprintf                             0x00002db0   Section        0  uartstdio.o(i.UARTprintf)
    i.UARTwrite                              0x00002df4   Section        0  uartstdio.o(i.UARTwrite)
    i._I2CIntNumberGet                       0x00002e34   Section        0  i2c.o(i._I2CIntNumberGet)
    _I2CIntNumberGet                         0x00002e35   Thumb Code    56  i2c.o(i._I2CIntNumberGet)
    i.__ARM_fpclassify                       0x00002e80   Section        0  fpclassify.o(i.__ARM_fpclassify)
    i._is_digit                              0x00002eb0   Section        0  __printf_wp.o(i._is_digit)
    i.accelerometerCallback                  0x00002ec0   Section        0  sensorinit.o(i.accelerometerCallback)
    i.cycles                                 0x00002ef8   Section        0  delays.o(i.cycles)
    i.initSensors                            0x00002f04   Section        0  sensorinit.o(i.initSensors)
    i.main                                   0x00003090   Section        0  main.o(i.main)
    locale$$code                             0x000030a0   Section       44  lc_numeric_c.o(locale$$code)
    locale$$code                             0x000030cc   Section       44  lc_ctype_c.o(locale$$code)
    x$fpl$dretinf                            0x000030f8   Section       12  dretinf.o(x$fpl$dretinf)
    $v0                                      0x000030f8   Number         0  dretinf.o(x$fpl$dretinf)
    x$fpl$f2d                                0x00003104   Section       86  f2d.o(x$fpl$f2d)
    $v0                                      0x00003104   Number         0  f2d.o(x$fpl$f2d)
    x$fpl$fnaninf                            0x0000315a   Section      140  fnaninf.o(x$fpl$fnaninf)
    $v0                                      0x0000315a   Number         0  fnaninf.o(x$fpl$fnaninf)
    x$fpl$fpinit                             0x000031e6   Section       10  fpinit.o(x$fpl$fpinit)
    $v0                                      0x000031e6   Number         0  fpinit.o(x$fpl$fpinit)
    x$fpl$printf1                            0x000031f0   Section        4  printf1.o(x$fpl$printf1)
    $v0                                      0x000031f0   Number         0  printf1.o(x$fpl$printf1)
    x$fpl$printf2                            0x000031f4   Section        4  printf2.o(x$fpl$printf2)
    $v0                                      0x000031f4   Number         0  printf2.o(x$fpl$printf2)
    .constdata                               0x000031f8   Section       24  uartstdio.o(.constdata)
    x$fpl$usenofp                            0x000031f8   Section        0  usenofp.o(x$fpl$usenofp)
    g_ulUARTBase                             0x000031f8   Data          12  uartstdio.o(.constdata)
    g_ulUARTPeriph                           0x00003204   Data          12  uartstdio.o(.constdata)
    .constdata                               0x00003210   Section      528  gpio.o(.constdata)
    g_ppui32GPIOIntMapBlizzard               0x00003210   Data         192  gpio.o(.constdata)
    g_ppui32GPIOIntMapSnowflake              0x000032d0   Data         192  gpio.o(.constdata)
    g_pui32GPIOBaseAddrs                     0x00003390   Data         144  gpio.o(.constdata)
    .constdata                               0x00003420   Section      128  i2c.o(.constdata)
    g_ppui32I2CIntMap                        0x00003420   Data          48  i2c.o(.constdata)
    g_ppui32I2CIntMapSnowflake               0x00003450   Data          80  i2c.o(.constdata)
    .constdata                               0x000034a0   Section      268  interrupt.o(.constdata)
    g_pui32Priority                          0x000034a0   Data          32  interrupt.o(.constdata)
    g_pui32Regs                              0x000034c0   Data         156  interrupt.o(.constdata)
    g_pui32EnRegs                            0x0000355c   Data          20  interrupt.o(.constdata)
    g_pui32Dii16Regs                         0x00003570   Data          20  interrupt.o(.constdata)
    g_pui32PendRegs                          0x00003584   Data          20  interrupt.o(.constdata)
    g_pui32UnpendRegs                        0x00003598   Data          20  interrupt.o(.constdata)
    .constdata                               0x000035ac   Section      452  sysctl.o(.constdata)
    g_pui32Xtals                             0x000035ac   Data         108  sysctl.o(.constdata)
    g_pppui32XTALtoVCO                       0x00003618   Data         288  sysctl.o(.constdata)
    g_sXTALtoMEMTIM                          0x00003738   Data          48  sysctl.o(.constdata)
    g_pui32VCOFrequencies                    0x00003768   Data           8  sysctl.o(.constdata)
    .constdata                               0x00003770   Section       80  lsm303dlhc_accel.o(.constdata)
    g_pfLSM303DLHCAccelFactors               0x00003770   Data          16  lsm303dlhc_accel.o(.constdata)
    g_pui8ZeroCtrl1                          0x00003780   Data          50  lsm303dlhc_accel.o(.constdata)
    g_pui8ZeroFifoCtl                        0x000037b2   Data          14  lsm303dlhc_accel.o(.constdata)
    .constdata                               0x000037c0   Section        8  _printf_wctomb.o(.constdata)
    initial_mbstate                          0x000037c0   Data           8  _printf_wctomb.o(.constdata)
    .constdata                               0x000037c8   Section       40  _printf_hex_int_ll_ptr.o(.constdata)
    uc_hextab                                0x000037c8   Data          20  _printf_hex_int_ll_ptr.o(.constdata)
    lc_hextab                                0x000037dc   Data          20  _printf_hex_int_ll_ptr.o(.constdata)
    .constdata                               0x000037f0   Section       17  __printf_flags_ss_wp.o(.constdata)
    maptable                                 0x000037f0   Data          17  __printf_flags_ss_wp.o(.constdata)
    .constdata                               0x00003801   Section       38  _printf_fp_hex.o(.constdata)
    lc_hextab                                0x00003801   Data          19  _printf_fp_hex.o(.constdata)
    uc_hextab                                0x00003814   Data          19  _printf_fp_hex.o(.constdata)
    .constdata                               0x00003828   Section      148  bigflt0.o(.constdata)
    tenpwrs_x                                0x00003828   Data          60  bigflt0.o(.constdata)
    tenpwrs_i                                0x00003864   Data          64  bigflt0.o(.constdata)
    locale$$data                             0x000038dc   Section       28  lc_numeric_c.o(locale$$data)
    __lcnum_c_name                           0x000038e0   Data           2  lc_numeric_c.o(locale$$data)
    __lcnum_c_start                          0x000038e8   Data           0  lc_numeric_c.o(locale$$data)
    __lcnum_c_point                          0x000038f4   Data           0  lc_numeric_c.o(locale$$data)
    __lcnum_c_thousands                      0x000038f6   Data           0  lc_numeric_c.o(locale$$data)
    __lcnum_c_grouping                       0x000038f7   Data           0  lc_numeric_c.o(locale$$data)
    locale$$data                             0x000038f8   Section      272  lc_ctype_c.o(locale$$data)
    __lcnum_c_end                            0x000038f8   Data           0  lc_numeric_c.o(locale$$data)
    __lcctype_c_name                         0x000038fc   Data           2  lc_ctype_c.o(locale$$data)
    __lcctype_c_start                        0x00003904   Data           0  lc_ctype_c.o(locale$$data)
    __lcctype_c_end                          0x00003a08   Data           0  lc_ctype_c.o(locale$$data)
    .data                                    0x20000000   Section        8  sensorinit.o(.data)
    .data                                    0x20000008   Section        5  uartstdio.o(.data)
    g_ulBase                                 0x20000008   Data           4  uartstdio.o(.data)
    bLastWasCR                               0x2000000c   Data           1  uartstdio.o(.data)
    vtable                                   0x20000400   Section      620  interrupt.o(vtable)
    g_pfnRAMVectors                          0x20000400   Data         620  interrupt.o(vtable)
    .bss                                     0x2000066c   Section      336  sensorinit.o(.bss)
    .bss                                     0x200007bc   Section      256  uartstdio.o(.bss)
    .bss                                     0x200008bc   Section       96  libspace.o(.bss)
    HEAP                                     0x20000920   Section        0  startup_tm4c123.o(HEAP)
    STACK                                    0x20000920   Section      512  startup_tm4c123.o(STACK)
    Heap_Mem                                 0x20000920   Data           0  startup_tm4c123.o(HEAP)
    Stack_Mem                                0x20000920   Data         512  startup_tm4c123.o(STACK)
    __initial_sp                             0x20000b20   Data           0  startup_tm4c123.o(STACK)

    Global Symbols

    Symbol Name                              Value     Ov Type        Size  Object(Section)

    BuildAttributes$$THM_ISAv4$E$P$D$K$B$S$7EM$VFPi3$EXTD16$VFPS$VFMA$PE$A:L22UL41UL21$X:L11$S22US41US21$IEEE1$IW$USESV6$~STKCKD$USESV7$~SHL$OTIME$ROPI$IEEEX$EBA8$UX$STANDARDLIB$REQ8$PRES8$EABIv2 0x00000000   Number         0  anon$$obj.o ABSOLUTE
    __ARM_use_no_argv                        0x00000000   Number         0  main.o ABSOLUTE
    __Vectors                                0x00000000   Data           4  startup_tm4c123.o(RESET)
    _printf_flags                            0x00000000   Number         0  printf_stubs.o ABSOLUTE
    _printf_return_value                     0x00000000   Number         0  printf_stubs.o ABSOLUTE
    _printf_sizespec                         0x00000000   Number         0  printf_stubs.o ABSOLUTE
    _printf_widthprec                        0x00000000   Number         0  printf_stubs.o ABSOLUTE
    __ARM_exceptions_init                     - Undefined Weak Reference
    __alloca_initialize                       - Undefined Weak Reference
    __arm_preinit_                            - Undefined Weak Reference
    __cpp_initialize__aeabi_                  - Undefined Weak Reference
    __cxa_finalize                            - Undefined Weak Reference
    __sigvec_lookup                           - Undefined Weak Reference
    _atexit_init                              - Undefined Weak Reference
    _call_atexit_fns                          - Undefined Weak Reference
    _clock_init                               - Undefined Weak Reference
    _fp_trap_init                             - Undefined Weak Reference
    _fp_trap_shutdown                         - Undefined Weak Reference
    _get_lc_collate                           - Undefined Weak Reference
    _get_lc_monetary                          - Undefined Weak Reference
    _get_lc_time                              - Undefined Weak Reference
    _getenv_init                              - Undefined Weak Reference
    _handle_redirection                       - Undefined Weak Reference
    _init_alloc                               - Undefined Weak Reference
    _init_user_alloc                          - Undefined Weak Reference
    _initio                                   - Undefined Weak Reference
    _printf_mbtowc                            - Undefined Weak Reference
    _printf_wc                                - Undefined Weak Reference
    _rand_init                                - Undefined Weak Reference
    _signal_finish                            - Undefined Weak Reference
    _signal_init                              - Undefined Weak Reference
    _terminate_alloc                          - Undefined Weak Reference
    _terminate_user_alloc                     - Undefined Weak Reference
    _terminateio                              - Undefined Weak Reference
    __Vectors_End                            0x0000026c   Data           0  startup_tm4c123.o(RESET)
    __Vectors_Size                           0x0000026c   Number         0  startup_tm4c123.o ABSOLUTE
    __main                                   0x0000026d   Thumb Code     8  __main.o(!!!main)
    __scatterload                            0x00000275   Thumb Code     0  __scatter.o(!!!scatter)
    __scatterload_rt2                        0x00000275   Thumb Code    44  __scatter.o(!!!scatter)
    __scatterload_rt2_thumb_only             0x00000275   Thumb Code     0  __scatter.o(!!!scatter)
    __scatterload_null                       0x00000283   Thumb Code     0  __scatter.o(!!!scatter)
    __decompress                             0x000002a9   Thumb Code    58  __dczerorl.o(!!dczerorl)
    __decompress0                            0x000002a9   Thumb Code     0  __dczerorl.o(!!dczerorl)
    __scatterload_zeroinit                   0x000002e5   Thumb Code    28  __scatter_zi.o(!!handler_zi)
    _printf_n                                0x00000301   Thumb Code     0  _printf_n.o(.ARM.Collect$$_printf_percent$$00000001)
    _printf_percent                          0x00000301   Thumb Code     0  _printf_percent.o(.ARM.Collect$$_printf_percent$$00000000)
    _printf_p                                0x00000307   Thumb Code     0  _printf_p.o(.ARM.Collect$$_printf_percent$$00000002)
    _printf_f                                0x0000030d   Thumb Code     0  _printf_f.o(.ARM.Collect$$_printf_percent$$00000003)
    _printf_e                                0x00000313   Thumb Code     0  _printf_e.o(.ARM.Collect$$_printf_percent$$00000004)
    _printf_g                                0x00000319   Thumb Code     0  _printf_g.o(.ARM.Collect$$_printf_percent$$00000005)
    _printf_a                                0x0000031f   Thumb Code     0  _printf_a.o(.ARM.Collect$$_printf_percent$$00000006)
    _printf_ll                               0x00000325   Thumb Code     0  _printf_ll.o(.ARM.Collect$$_printf_percent$$00000007)
    _printf_i                                0x0000032f   Thumb Code     0  _printf_i.o(.ARM.Collect$$_printf_percent$$00000008)
    _printf_d                                0x00000335   Thumb Code     0  _printf_d.o(.ARM.Collect$$_printf_percent$$00000009)
    _printf_u                                0x0000033b   Thumb Code     0  _printf_u.o(.ARM.Collect$$_printf_percent$$0000000A)
    _printf_o                                0x00000341   Thumb Code     0  _printf_o.o(.ARM.Collect$$_printf_percent$$0000000B)
    _printf_x                                0x00000347   Thumb Code     0  _printf_x.o(.ARM.Collect$$_printf_percent$$0000000C)
    _printf_lli                              0x0000034d   Thumb Code     0  _printf_lli.o(.ARM.Collect$$_printf_percent$$0000000D)
    _printf_lld                              0x00000353   Thumb Code     0  _printf_lld.o(.ARM.Collect$$_printf_percent$$0000000E)
    _printf_llu                              0x00000359   Thumb Code     0  _printf_llu.o(.ARM.Collect$$_printf_percent$$0000000F)
    _printf_llo                              0x0000035f   Thumb Code     0  _printf_llo.o(.ARM.Collect$$_printf_percent$$00000010)
    _printf_llx                              0x00000365   Thumb Code     0  _printf_llx.o(.ARM.Collect$$_printf_percent$$00000011)
    _printf_l                                0x0000036b   Thumb Code     0  _printf_l.o(.ARM.Collect$$_printf_percent$$00000012)
    _printf_c                                0x00000375   Thumb Code     0  _printf_c.o(.ARM.Collect$$_printf_percent$$00000013)
    _printf_s                                0x0000037b   Thumb Code     0  _printf_s.o(.ARM.Collect$$_printf_percent$$00000014)
    _printf_lc                               0x00000381   Thumb Code     0  _printf_lc.o(.ARM.Collect$$_printf_percent$$00000015)
    _printf_ls                               0x00000387   Thumb Code     0  _printf_ls.o(.ARM.Collect$$_printf_percent$$00000016)
    _printf_percent_end                      0x0000038d   Thumb Code     0  _printf_percent_end.o(.ARM.Collect$$_printf_percent$$00000017)
    __rt_lib_init                            0x00000391   Thumb Code     0  libinit.o(.ARM.Collect$$libinit$$00000000)
    __rt_lib_init_fp_1                       0x00000393   Thumb Code     0  libinit2.o(.ARM.Collect$$libinit$$00000001)
    __rt_lib_init_heap_1                     0x00000397   Thumb Code     0  libinit2.o(.ARM.Collect$$libinit$$0000000A)
    __rt_lib_init_lc_common                  0x00000397   Thumb Code     0  libinit2.o(.ARM.Collect$$libinit$$0000000F)
    __rt_lib_init_preinit_1                  0x00000397   Thumb Code     0  libinit2.o(.ARM.Collect$$libinit$$00000004)
    __rt_lib_init_rand_1                     0x00000397   Thumb Code     0  libinit2.o(.ARM.Collect$$libinit$$0000000E)
    __rt_lib_init_user_alloc_1               0x00000397   Thumb Code     0  libinit2.o(.ARM.Collect$$libinit$$0000000C)
    __rt_lib_init_lc_collate_1               0x0000039d   Thumb Code     0  libinit2.o(.ARM.Collect$$libinit$$00000011)
    __rt_lib_init_lc_ctype_2                 0x0000039d   Thumb Code     0  libinit2.o(.ARM.Collect$$libinit$$00000012)
    __rt_lib_init_lc_ctype_1                 0x000003a9   Thumb Code     0  libinit2.o(.ARM.Collect$$libinit$$00000013)
    __rt_lib_init_lc_monetary_1              0x000003a9   Thumb Code     0  libinit2.o(.ARM.Collect$$libinit$$00000015)
    __rt_lib_init_lc_numeric_2               0x000003a9   Thumb Code     0  libinit2.o(.ARM.Collect$$libinit$$00000016)
    __rt_lib_init_alloca_1                   0x000003b3   Thumb Code     0  libinit2.o(.ARM.Collect$$libinit$$0000002E)
    __rt_lib_init_argv_1                     0x000003b3   Thumb Code     0  libinit2.o(.ARM.Collect$$libinit$$0000002C)
    __rt_lib_init_atexit_1                   0x000003b3   Thumb Code     0  libinit2.o(.ARM.Collect$$libinit$$0000001B)
    __rt_lib_init_clock_1                    0x000003b3   Thumb Code     0  libinit2.o(.ARM.Collect$$libinit$$00000021)
    __rt_lib_init_cpp_1                      0x000003b3   Thumb Code     0  libinit2.o(.ARM.Collect$$libinit$$00000032)
    __rt_lib_init_exceptions_1               0x000003b3   Thumb Code     0  libinit2.o(.ARM.Collect$$libinit$$00000030)
    __rt_lib_init_fp_trap_1                  0x000003b3   Thumb Code     0  libinit2.o(.ARM.Collect$$libinit$$0000001F)
    __rt_lib_init_getenv_1                   0x000003b3   Thumb Code     0  libinit2.o(.ARM.Collect$$libinit$$00000023)
    __rt_lib_init_lc_numeric_1               0x000003b3   Thumb Code     0  libinit2.o(.ARM.Collect$$libinit$$00000017)
    __rt_lib_init_lc_time_1                  0x000003b3   Thumb Code     0  libinit2.o(.ARM.Collect$$libinit$$00000019)
    __rt_lib_init_return                     0x000003b3   Thumb Code     0  libinit2.o(.ARM.Collect$$libinit$$00000033)
    __rt_lib_init_signal_1                   0x000003b3   Thumb Code     0  libinit2.o(.ARM.Collect$$libinit$$0000001D)
    __rt_lib_init_stdio_1                    0x000003b3   Thumb Code     0  libinit2.o(.ARM.Collect$$libinit$$00000025)
    __rt_lib_shutdown                        0x000003b5   Thumb Code     0  libshutdown.o(.ARM.Collect$$libshutdown$$00000000)
    __rt_lib_shutdown_cpp_1                  0x000003b7   Thumb Code     0  libshutdown2.o(.ARM.Collect$$libshutdown$$00000002)
    __rt_lib_shutdown_fp_trap_1              0x000003b7   Thumb Code     0  libshutdown2.o(.ARM.Collect$$libshutdown$$00000007)
    __rt_lib_shutdown_heap_1                 0x000003b7   Thumb Code     0  libshutdown2.o(.ARM.Collect$$libshutdown$$0000000F)
    __rt_lib_shutdown_return                 0x000003b7   Thumb Code     0  libshutdown2.o(.ARM.Collect$$libshutdown$$00000010)
    __rt_lib_shutdown_signal_1               0x000003b7   Thumb Code     0  libshutdown2.o(.ARM.Collect$$libshutdown$$0000000A)
    __rt_lib_shutdown_stdio_1                0x000003b7   Thumb Code     0  libshutdown2.o(.ARM.Collect$$libshutdown$$00000004)
    __rt_lib_shutdown_user_alloc_1           0x000003b7   Thumb Code     0  libshutdown2.o(.ARM.Collect$$libshutdown$$0000000C)
    __rt_entry                               0x000003b9   Thumb Code     0  __rtentry.o(.ARM.Collect$$rtentry$$00000000)
    __rt_entry_presh_1                       0x000003b9   Thumb Code     0  __rtentry2.o(.ARM.Collect$$rtentry$$00000002)
    __rt_entry_sh                            0x000003b9   Thumb Code     0  __rtentry4.o(.ARM.Collect$$rtentry$$00000004)
    __rt_entry_li                            0x000003bf   Thumb Code     0  __rtentry2.o(.ARM.Collect$$rtentry$$0000000A)
    __rt_entry_postsh_1                      0x000003bf   Thumb Code     0  __rtentry2.o(.ARM.Collect$$rtentry$$00000009)
    __rt_entry_main                          0x000003c3   Thumb Code     0  __rtentry2.o(.ARM.Collect$$rtentry$$0000000D)
    __rt_entry_postli_1                      0x000003c3   Thumb Code     0  __rtentry2.o(.ARM.Collect$$rtentry$$0000000C)
    __rt_exit                                0x000003cb   Thumb Code     0  rtexit.o(.ARM.Collect$$rtexit$$00000000)
    __rt_exit_ls                             0x000003cd   Thumb Code     0  rtexit2.o(.ARM.Collect$$rtexit$$00000003)
    __rt_exit_prels_1                        0x000003cd   Thumb Code     0  rtexit2.o(.ARM.Collect$$rtexit$$00000002)
    __rt_exit_exit                           0x000003d1   Thumb Code     0  rtexit2.o(.ARM.Collect$$rtexit$$00000004)
    Reset_Handler                            0x000003d9   Thumb Code     8  startup_tm4c123.o(.text)
    NMI_Handler                              0x000003e1   Thumb Code     2  startup_tm4c123.o(.text)
    HardFault_Handler                        0x000003e3   Thumb Code     2  startup_tm4c123.o(.text)
    MemManage_Handler                        0x000003e5   Thumb Code     2  startup_tm4c123.o(.text)
    BusFault_Handler                         0x000003e7   Thumb Code     2  startup_tm4c123.o(.text)
    UsageFault_Handler                       0x000003e9   Thumb Code     2  startup_tm4c123.o(.text)
    SVC_Handler                              0x000003eb   Thumb Code     2  startup_tm4c123.o(.text)
    DebugMon_Handler                         0x000003ed   Thumb Code     2  startup_tm4c123.o(.text)
    PendSV_Handler                           0x000003ef   Thumb Code     2  startup_tm4c123.o(.text)
    SysTick_Handler                          0x000003f1   Thumb Code     2  startup_tm4c123.o(.text)
    GPIOA_Handler                            0x000003f3   Thumb Code     2  startup_tm4c123.o(.text)
    GPIOB_Handler                            0x000003f5   Thumb Code     2  startup_tm4c123.o(.text)
    GPIOC_Handler                            0x000003f7   Thumb Code     2  startup_tm4c123.o(.text)
    GPIOD_Handler                            0x000003f9   Thumb Code     2  startup_tm4c123.o(.text)
    GPIOE_Handler                            0x000003fb   Thumb Code     2  startup_tm4c123.o(.text)
    UART0_Handler                            0x000003fd   Thumb Code     2  startup_tm4c123.o(.text)
    UART1_Handler                            0x000003ff   Thumb Code     2  startup_tm4c123.o(.text)
    SSI0_Handler                             0x00000401   Thumb Code     2  startup_tm4c123.o(.text)
    I2C0_Handler                             0x00000403   Thumb Code     2  startup_tm4c123.o(.text)
    PMW0_FAULT_Handler                       0x00000405   Thumb Code     2  startup_tm4c123.o(.text)
    PWM0_0_Handler                           0x00000407   Thumb Code     2  startup_tm4c123.o(.text)
    PWM0_1_Handler                           0x00000409   Thumb Code     2  startup_tm4c123.o(.text)
    PWM0_2_Handler                           0x0000040b   Thumb Code     2  startup_tm4c123.o(.text)
    QEI0_Handler                             0x0000040d   Thumb Code     2  startup_tm4c123.o(.text)
    ADC0SS0_Handler                          0x0000040f   Thumb Code     2  startup_tm4c123.o(.text)
    ADC0SS1_Handler                          0x00000411   Thumb Code     2  startup_tm4c123.o(.text)
    ADC0SS2_Handler                          0x00000413   Thumb Code     2  startup_tm4c123.o(.text)
    ADC0SS3_Handler                          0x00000415   Thumb Code     2  startup_tm4c123.o(.text)
    WDT0_Handler                             0x00000417   Thumb Code     2  startup_tm4c123.o(.text)
    TIMER0A_Handler                          0x00000419   Thumb Code     2  startup_tm4c123.o(.text)
    TIMER0B_Handler                          0x0000041b   Thumb Code     2  startup_tm4c123.o(.text)
    TIMER1A_Handler                          0x0000041d   Thumb Code     2  startup_tm4c123.o(.text)
    TIMER1B_Handler                          0x0000041f   Thumb Code     2  startup_tm4c123.o(.text)
    TIMER2A_Handler                          0x00000421   Thumb Code     2  startup_tm4c123.o(.text)
    TIMER2B_Handler                          0x00000423   Thumb Code     2  startup_tm4c123.o(.text)
    COMP0_Handler                            0x00000425   Thumb Code     2  startup_tm4c123.o(.text)
    COMP1_Handler                            0x00000427   Thumb Code     2  startup_tm4c123.o(.text)
    COMP2_Handler                            0x00000429   Thumb Code     2  startup_tm4c123.o(.text)
    SYSCTL_Handler                           0x0000042b   Thumb Code     2  startup_tm4c123.o(.text)
    FLASH_Handler                            0x0000042d   Thumb Code     2  startup_tm4c123.o(.text)
    GPIOF_Handler                            0x0000042f   Thumb Code     2  startup_tm4c123.o(.text)
    GPIOG_Handler                            0x00000431   Thumb Code     2  startup_tm4c123.o(.text)
    GPIOH_Handler                            0x00000433   Thumb Code     2  startup_tm4c123.o(.text)
    UART2_Handler                            0x00000435   Thumb Code     2  startup_tm4c123.o(.text)
    SSI1_Handler                             0x00000437   Thumb Code     2  startup_tm4c123.o(.text)
    TIMER3A_Handler                          0x00000439   Thumb Code     2  startup_tm4c123.o(.text)
    TIMER3B_Handler                          0x0000043b   Thumb Code     2  startup_tm4c123.o(.text)
    I2C1_Handler                             0x0000043d   Thumb Code     2  startup_tm4c123.o(.text)
    QEI1_Handler                             0x0000043f   Thumb Code     2  startup_tm4c123.o(.text)
    CAN0_Handler                             0x00000441   Thumb Code     2  startup_tm4c123.o(.text)
    CAN1_Handler                             0x00000443   Thumb Code     2  startup_tm4c123.o(.text)
    CAN2_Handler                             0x00000445   Thumb Code     2  startup_tm4c123.o(.text)
    HIB_Handler                              0x00000447   Thumb Code     2  startup_tm4c123.o(.text)
    USB0_Handler                             0x00000449   Thumb Code     2  startup_tm4c123.o(.text)
    PWM0_3_Handler                           0x0000044b   Thumb Code     2  startup_tm4c123.o(.text)
    UDMA_Handler                             0x0000044d   Thumb Code     2  startup_tm4c123.o(.text)
    UDMAERR_Handler                          0x0000044f   Thumb Code     2  startup_tm4c123.o(.text)
    ADC1SS0_Handler                          0x00000451   Thumb Code     2  startup_tm4c123.o(.text)
    ADC1SS1_Handler                          0x00000453   Thumb Code     2  startup_tm4c123.o(.text)
    ADC1SS2_Handler                          0x00000455   Thumb Code     2  startup_tm4c123.o(.text)
    ADC1SS3_Handler                          0x00000457   Thumb Code     2  startup_tm4c123.o(.text)
    GPIOJ_Handler                            0x00000459   Thumb Code     2  startup_tm4c123.o(.text)
    GPIOK_Handler                            0x0000045b   Thumb Code     2  startup_tm4c123.o(.text)
    GPIOL_Handler                            0x0000045d   Thumb Code     2  startup_tm4c123.o(.text)
    SSI2_Handler                             0x0000045f   Thumb Code     2  startup_tm4c123.o(.text)
    SSI3_Handler                             0x00000461   Thumb Code     2  startup_tm4c123.o(.text)
    UART3_Handler                            0x00000463   Thumb Code     2  startup_tm4c123.o(.text)
    UART4_Handler                            0x00000465   Thumb Code     2  startup_tm4c123.o(.text)
    UART5_Handler                            0x00000467   Thumb Code     2  startup_tm4c123.o(.text)
    UART6_Handler                            0x00000469   Thumb Code     2  startup_tm4c123.o(.text)
    UART7_Handler                            0x0000046b   Thumb Code     2  startup_tm4c123.o(.text)
    I2C2_Handler                             0x0000046d   Thumb Code     2  startup_tm4c123.o(.text)
    I2C3_Handler                             0x0000046f   Thumb Code     2  startup_tm4c123.o(.text)
    TIMER4A_Handler                          0x00000471   Thumb Code     2  startup_tm4c123.o(.text)
    TIMER4B_Handler                          0x00000473   Thumb Code     2  startup_tm4c123.o(.text)
    TIMER5A_Handler                          0x00000475   Thumb Code     2  startup_tm4c123.o(.text)
    TIMER5B_Handler                          0x00000477   Thumb Code     2  startup_tm4c123.o(.text)
    WTIMER0A_Handler                         0x00000479   Thumb Code     2  startup_tm4c123.o(.text)
    WTIMER0B_Handler                         0x0000047b   Thumb Code     2  startup_tm4c123.o(.text)
    WTIMER1A_Handler                         0x0000047d   Thumb Code     2  startup_tm4c123.o(.text)
    WTIMER1B_Handler                         0x0000047f   Thumb Code     2  startup_tm4c123.o(.text)
    WTIMER2A_Handler                         0x00000481   Thumb Code     2  startup_tm4c123.o(.text)
    WTIMER2B_Handler                         0x00000483   Thumb Code     2  startup_tm4c123.o(.text)
    WTIMER3A_Handler                         0x00000485   Thumb Code     2  startup_tm4c123.o(.text)
    WTIMER3B_Handler                         0x00000487   Thumb Code     2  startup_tm4c123.o(.text)
    WTIMER4A_Handler                         0x00000489   Thumb Code     2  startup_tm4c123.o(.text)
    WTIMER4B_Handler                         0x0000048b   Thumb Code     2  startup_tm4c123.o(.text)
    WTIMER5A_Handler                         0x0000048d   Thumb Code     2  startup_tm4c123.o(.text)
    WTIMER5B_Handler                         0x0000048f   Thumb Code     2  startup_tm4c123.o(.text)
    FPU_Handler                              0x00000491   Thumb Code     2  startup_tm4c123.o(.text)
    I2C4_Handler                             0x00000493   Thumb Code     2  startup_tm4c123.o(.text)
    I2C5_Handler                             0x00000495   Thumb Code     2  startup_tm4c123.o(.text)
    GPIOM_Handler                            0x00000497   Thumb Code     2  startup_tm4c123.o(.text)
    GPION_Handler                            0x00000499   Thumb Code     2  startup_tm4c123.o(.text)
    QEI2_Handler                             0x0000049b   Thumb Code     2  startup_tm4c123.o(.text)
    GPIOP0_Handler                           0x0000049d   Thumb Code     2  startup_tm4c123.o(.text)
    GPIOP1_Handler                           0x0000049f   Thumb Code     2  startup_tm4c123.o(.text)
    GPIOP2_Handler                           0x000004a1   Thumb Code     2  startup_tm4c123.o(.text)
    GPIOP3_Handler                           0x000004a3   Thumb Code     2  startup_tm4c123.o(.text)
    GPIOP4_Handler                           0x000004a5   Thumb Code     2  startup_tm4c123.o(.text)
    GPIOP5_Handler                           0x000004a7   Thumb Code     2  startup_tm4c123.o(.text)
    GPIOP6_Handler                           0x000004a9   Thumb Code     2  startup_tm4c123.o(.text)
    GPIOP7_Handler                           0x000004ab   Thumb Code     2  startup_tm4c123.o(.text)
    GPIOQ0_Handler                           0x000004ad   Thumb Code     2  startup_tm4c123.o(.text)
    GPIOQ1_Handler                           0x000004af   Thumb Code     2  startup_tm4c123.o(.text)
    GPIOQ2_Handler                           0x000004b1   Thumb Code     2  startup_tm4c123.o(.text)
    GPIOQ3_Handler                           0x000004b3   Thumb Code     2  startup_tm4c123.o(.text)
    GPIOQ4_Handler                           0x000004b5   Thumb Code     2  startup_tm4c123.o(.text)
    GPIOQ5_Handler                           0x000004b7   Thumb Code     2  startup_tm4c123.o(.text)
    GPIOQ6_Handler                           0x000004b9   Thumb Code     2  startup_tm4c123.o(.text)
    GPIOQ7_Handler                           0x000004bb   Thumb Code     2  startup_tm4c123.o(.text)
    GPIOR_Handler                            0x000004bd   Thumb Code     2  startup_tm4c123.o(.text)
    GPIOS_Handler                            0x000004bf   Thumb Code     2  startup_tm4c123.o(.text)
    PMW1_0_Handler                           0x000004c1   Thumb Code     2  startup_tm4c123.o(.text)
    PWM1_1_Handler                           0x000004c3   Thumb Code     2  startup_tm4c123.o(.text)
    PWM1_2_Handler                           0x000004c5   Thumb Code     2  startup_tm4c123.o(.text)
    PWM1_3_Handler                           0x000004c7   Thumb Code     2  startup_tm4c123.o(.text)
    PWM1_FAULT_Handler                       0x000004c9   Thumb Code     2  startup_tm4c123.o(.text)
    __user_initial_stackheap                 0x000004cd   Thumb Code     0  startup_tm4c123.o(.text)
    vsnprintf                                0x000004ed   Thumb Code    48  vsnprintf.o(.text)
    __use_two_region_memory                  0x00000521   Thumb Code     2  heapauxi.o(.text)
    __rt_heap_escrow$2region                 0x00000523   Thumb Code     2  heapauxi.o(.text)
    __rt_heap_expand$2region                 0x00000525   Thumb Code     2  heapauxi.o(.text)
    _printf_pre_padding                      0x00000527   Thumb Code    44  _printf_pad.o(.text)
    _printf_post_padding                     0x00000553   Thumb Code    34  _printf_pad.o(.text)
    _printf_truncate_signed                  0x00000575   Thumb Code    18  _printf_truncate.o(.text)
    _printf_truncate_unsigned                0x00000587   Thumb Code    18  _printf_truncate.o(.text)
    _printf_str                              0x00000599   Thumb Code    82  _printf_str.o(.text)
    _printf_int_dec                          0x000005ed   Thumb Code   104  _printf_dec.o(.text)
    _printf_charcount                        0x00000665   Thumb Code    40  _printf_charcount.o(.text)
    _printf_char_common                      0x00000697   Thumb Code    32  _printf_char_common.o(.text)
    _sputc                                   0x000006bd   Thumb Code    10  _sputc.o(.text)
    _snputc                                  0x000006c7   Thumb Code    16  _snputc.o(.text)
    _printf_wctomb                           0x000006d9   Thumb Code   182  _printf_wctomb.o(.text)
    _printf_longlong_dec                     0x00000795   Thumb Code   108  _printf_longlong_dec.o(.text)
    _printf_longlong_oct                     0x00000811   Thumb Code    68  _printf_oct_int_ll.o(.text)
    _printf_int_oct                          0x00000855   Thumb Code    24  _printf_oct_int_ll.o(.text)
    _printf_ll_oct                           0x0000086d   Thumb Code    12  _printf_oct_int_ll.o(.text)
    _printf_longlong_hex                     0x00000881   Thumb Code    86  _printf_hex_int_ll_ptr.o(.text)
    _printf_int_hex                          0x000008d7   Thumb Code    28  _printf_hex_int_ll_ptr.o(.text)
    _printf_ll_hex                           0x000008f3   Thumb Code    12  _printf_hex_int_ll_ptr.o(.text)
    _printf_hex_ptr                          0x000008ff   Thumb Code    18  _printf_hex_int_ll_ptr.o(.text)
    __printf                                 0x00000915   Thumb Code   388  __printf_flags_ss_wp.o(.text)
    _ll_udiv10                               0x00000a9d   Thumb Code   138  lludiv10.o(.text)
    _printf_int_common                       0x00000b27   Thumb Code   178  _printf_intcommon.o(.text)
    __lib_sel_fp_printf                      0x00000bd9   Thumb Code     2  _printf_fp_dec.o(.text)
    _printf_fp_dec_real                      0x00000d87   Thumb Code   620  _printf_fp_dec.o(.text)
    _printf_fp_hex_real                      0x00000ff5   Thumb Code   754  _printf_fp_hex.o(.text)
    _printf_cs_common                        0x000012f1   Thumb Code    20  _printf_char.o(.text)
    _printf_char                             0x00001305   Thumb Code    16  _printf_char.o(.text)
    _printf_string                           0x00001315   Thumb Code     8  _printf_char.o(.text)
    _printf_lcs_common                       0x0000131d   Thumb Code    20  _printf_wchar.o(.text)
    _printf_wchar                            0x00001331   Thumb Code    16  _printf_wchar.o(.text)
    _printf_wstring                          0x00001341   Thumb Code     8  _printf_wchar.o(.text)
    _wcrtomb                                 0x00001349   Thumb Code    64  _wcrtomb.o(.text)
    __user_libspace                          0x00001389   Thumb Code     8  libspace.o(.text)
    __user_perproc_libspace                  0x00001389   Thumb Code     0  libspace.o(.text)
    __user_perthread_libspace                0x00001389   Thumb Code     0  libspace.o(.text)
    __user_setup_stackheap                   0x00001391   Thumb Code    74  sys_stackheap_outer.o(.text)
    __rt_ctype_table                         0x000013dd   Thumb Code    16  rt_ctype_table.o(.text)
    __rt_locale                              0x000013ed   Thumb Code     8  rt_locale_intlibspace.o(.text)
    _printf_fp_infnan                        0x000013f5   Thumb Code   112  _printf_fp_infnan.o(.text)
    _btod_etento                             0x00001475   Thumb Code   216  bigflt0.o(.text)
    exit                                     0x00001551   Thumb Code    18  exit.o(.text)
    strcmp                                   0x00001565   Thumb Code   128  strcmpv7m.o(.text)
    _sys_exit                                0x000015e5   Thumb Code     8  sys_exit.o(.text)
    __I$use$semihosting                      0x000015f1   Thumb Code     0  use_no_semi.o(.text)
    __use_no_semihosting_swi                 0x000015f1   Thumb Code     2  use_no_semi.o(.text)
    __semihosting_library_function           0x000015f3   Thumb Code     0  indicate_semi.o(.text)
    _btod_d2e                                0x000015f3   Thumb Code    62  btod.o(CL$$btod_d2e)
    _d2e_denorm_low                          0x00001631   Thumb Code    70  btod.o(CL$$btod_d2e_denorm_low)
    _d2e_norm_op1                            0x00001677   Thumb Code    96  btod.o(CL$$btod_d2e_norm_op1)
    __btod_div_common                        0x000016d7   Thumb Code   696  btod.o(CL$$btod_div_common)
    _e2e                                     0x00001a0f   Thumb Code   198  btod.o(CL$$btod_e2e)
    _btod_ediv                               0x00001ad5   Thumb Code    40  btod.o(CL$$btod_ediv)
    _btod_emul                               0x00001afd   Thumb Code    40  btod.o(CL$$btod_emul)
    __btod_mult_common                       0x00001b25   Thumb Code   580  btod.o(CL$$btod_mult_common)
    GPIODirModeSet                           0x00001d69   Thumb Code    50  gpio.o(i.GPIODirModeSet)
    GPIOPadConfigSet                         0x00001d9b   Thumb Code   342  gpio.o(i.GPIOPadConfigSet)
    GPIOPinConfigure                         0x00001ef1   Thumb Code    70  gpio.o(i.GPIOPinConfigure)
    GPIOPinTypeI2C                           0x00001f41   Thumb Code    30  gpio.o(i.GPIOPinTypeI2C)
    GPIOPinTypeI2CSCL                        0x00001f5f   Thumb Code    30  gpio.o(i.GPIOPinTypeI2CSCL)
    GPIOPinTypeUART                          0x00001f7d   Thumb Code    30  gpio.o(i.GPIOPinTypeUART)
    I2CIntRegister                           0x00001f9b   Thumb Code    30  i2c.o(i.I2CIntRegister)
    I2CMCommand                              0x00001fb9   Thumb Code   162  i2cm_drv.o(i.I2CMCommand)
    I2CMInit                                 0x0000205b   Thumb Code    80  i2cm_drv.o(i.I2CMInit)
    I2CMIntHandler                           0x000020ab   Thumb Code   236  i2cm_drv.o(i.I2CMIntHandler)
    I2CMIntHandler_wrapper                   0x00002199   Thumb Code    10  sensorinit.o(i.I2CMIntHandler_wrapper)
    I2CMRead                                 0x000021a9   Thumb Code    52  i2cm_drv.o(i.I2CMRead)
    I2CMReadModifyWrite8                     0x000021dd   Thumb Code   124  i2cm_drv.o(i.I2CMReadModifyWrite8)
    I2CMWrite                                0x000026b7   Thumb Code    52  i2cm_drv.o(i.I2CMWrite)
    I2CMasterEnable                          0x000026eb   Thumb Code    10  i2c.o(i.I2CMasterEnable)
    I2CMasterInitExpClk                      0x000026f5   Thumb Code    78  i2c.o(i.I2CMasterInitExpClk)
    InitConsole                              0x00002751   Thumb Code    60  main.o(i.InitConsole)
    InitI2C0                                 0x0000279d   Thumb Code    72  sensorinit.o(i.InitI2C0)
    IntEnable                                0x00002805   Thumb Code   108  interrupt.o(i.IntEnable)
    IntRegister                              0x00002879   Thumb Code    52  interrupt.o(i.IntRegister)
    IntTrigger                               0x000028b5   Thumb Code    10  interrupt.o(i.IntTrigger)
    LSM303DLHCAccelDataAccelGetFloat         0x000028c5   Thumb Code   104  lsm303dlhc_accel.o(i.LSM303DLHCAccelDataAccelGetFloat)
    LSM303DLHCAccelDataRead                  0x00002931   Thumb Code    72  lsm303dlhc_accel.o(i.LSM303DLHCAccelDataRead)
    LSM303DLHCAccelInit                      0x0000297d   Thumb Code    68  lsm303dlhc_accel.o(i.LSM303DLHCAccelInit)
    LSM303DLHCAccelReadModifyWrite           0x000029c9   Thumb Code    76  lsm303dlhc_accel.o(i.LSM303DLHCAccelReadModifyWrite)
    SysCtlClockGet                           0x00002a95   Thumb Code   324  sysctl.o(i.SysCtlClockGet)
    SysCtlPeripheralEnable                   0x00002c01   Thumb Code    46  sysctl.o(i.SysCtlPeripheralEnable)
    SysCtlPeripheralReset                    0x00002c35   Thumb Code   106  sysctl.o(i.SysCtlPeripheralReset)
    SystemInit                               0x00002ca5   Thumb Code   112  system_tm4c123.o(i.SystemInit)
    UARTClockSourceSet                       0x00002d3d   Thumb Code     6  uart.o(i.UARTClockSourceSet)
    UARTStdioConfig                          0x00002d45   Thumb Code    96  uartstdio.o(i.UARTStdioConfig)
    UARTprintf                               0x00002db1   Thumb Code    62  uartstdio.o(i.UARTprintf)
    UARTwrite                                0x00002df5   Thumb Code    58  uartstdio.o(i.UARTwrite)
    __ARM_fpclassify                         0x00002e81   Thumb Code    48  fpclassify.o(i.__ARM_fpclassify)
    _is_digit                                0x00002eb1   Thumb Code    14  __printf_wp.o(i._is_digit)
    accelerometerCallback                    0x00002ec1   Thumb Code    28  sensorinit.o(i.accelerometerCallback)
    cycles                                   0x00002ef9   Thumb Code    10  delays.o(i.cycles)
    initSensors                              0x00002f05   Thumb Code   330  sensorinit.o(i.initSensors)
    main                                     0x00003091   Thumb Code    14  main.o(i.main)
    _get_lc_numeric                          0x000030a1   Thumb Code    44  lc_numeric_c.o(locale$$code)
    _get_lc_ctype                            0x000030cd   Thumb Code    44  lc_ctype_c.o(locale$$code)
    __fpl_dretinf                            0x000030f9   Thumb Code    12  dretinf.o(x$fpl$dretinf)
    __aeabi_f2d                              0x00003105   Thumb Code     0  f2d.o(x$fpl$f2d)
    _f2d                                     0x00003105   Thumb Code    86  f2d.o(x$fpl$f2d)
    __fpl_fnaninf                            0x0000315b   Thumb Code   140  fnaninf.o(x$fpl$fnaninf)
    _fp_init                                 0x000031e7   Thumb Code    10  fpinit.o(x$fpl$fpinit)
    __fplib_config_fpu_vfp                   0x000031ef   Thumb Code     0  fpinit.o(x$fpl$fpinit)
    __fplib_config_pureend_doubles           0x000031ef   Thumb Code     0  fpinit.o(x$fpl$fpinit)
    _printf_fp_dec                           0x000031f1   Thumb Code     4  printf1.o(x$fpl$printf1)
    _printf_fp_hex                           0x000031f5   Thumb Code     4  printf2.o(x$fpl$printf2)
    __I$use$fp                               0x000031f8   Number         0  usenofp.o(x$fpl$usenofp)
    Region$$Table$$Base                      0x000038bc   Number         0  anon$$obj.o(Region$$Table)
    Region$$Table$$Limit                     0x000038dc   Number         0  anon$$obj.o(Region$$Table)
    __ctype                                  0x00003905   Data           0  lc_ctype_c.o(locale$$data)
    g_bLSM303DLHCAccelDone                   0x20000000   Data           1  sensorinit.o(.data)
    user_accelCallback                       0x20000004   Data           4  sensorinit.o(.data)
    masterDriver                             0x2000066c   Data         292  sensorinit.o(.bss)
    accelerometer                            0x20000790   Data          44  sensorinit.o(.bss)
    buf                                      0x200007bc   Data         256  uartstdio.o(.bss)
    __libspace_start                         0x200008bc   Data          96  libspace.o(.bss)
    __temporary_stack_top$libspace           0x2000091c   Data           0  libspace.o(.bss)



==============================================================================

Memory Map of the image

  Image Entry point : 0x000003d9

  Load Region LR_1 (Base: 0x00000000, Size: 0x00004074, Max: 0xffffffff, ABSOLUTE, COMPRESSED[0x00003a18])

    Execution Region ER_RO (Base: 0x00000000, Size: 0x00003a08, Max: 0xffffffff, ABSOLUTE)

    Base Addr    Size         Type   Attr      Idx    E Section Name        Object

    0x00000000   0x0000026c   Data   RO         7719    RESET               startup_tm4c123.o
    0x0000026c   0x00000008   Code   RO         7793  * !!!main             c_w.l(__main.o)
    0x00000274   0x00000034   Code   RO         8240    !!!scatter          c_w.l(__scatter.o)
    0x000002a8   0x0000003a   Code   RO         8238    !!dczerorl          c_w.l(__dczerorl.o)
    0x000002e2   0x00000002   PAD
    0x000002e4   0x0000001c   Code   RO         8242    !!handler_zi        c_w.l(__scatter_zi.o)
    0x00000300   0x00000000   Code   RO         7969    .ARM.Collect$$_printf_percent$$00000000  c_w.l(_printf_percent.o)
    0x00000300   0x00000006   Code   RO         7958    .ARM.Collect$$_printf_percent$$00000001  c_w.l(_printf_n.o)
    0x00000306   0x00000006   Code   RO         7960    .ARM.Collect$$_printf_percent$$00000002  c_w.l(_printf_p.o)
    0x0000030c   0x00000006   Code   RO         7965    .ARM.Collect$$_printf_percent$$00000003  c_w.l(_printf_f.o)
    0x00000312   0x00000006   Code   RO         7966    .ARM.Collect$$_printf_percent$$00000004  c_w.l(_printf_e.o)
    0x00000318   0x00000006   Code   RO         7967    .ARM.Collect$$_printf_percent$$00000005  c_w.l(_printf_g.o)
    0x0000031e   0x00000006   Code   RO         7968    .ARM.Collect$$_printf_percent$$00000006  c_w.l(_printf_a.o)
    0x00000324   0x0000000a   Code   RO         7973    .ARM.Collect$$_printf_percent$$00000007  c_w.l(_printf_ll.o)
    0x0000032e   0x00000006   Code   RO         7962    .ARM.Collect$$_printf_percent$$00000008  c_w.l(_printf_i.o)
    0x00000334   0x00000006   Code   RO         7963    .ARM.Collect$$_printf_percent$$00000009  c_w.l(_printf_d.o)
    0x0000033a   0x00000006   Code   RO         7964    .ARM.Collect$$_printf_percent$$0000000A  c_w.l(_printf_u.o)
    0x00000340   0x00000006   Code   RO         7961    .ARM.Collect$$_printf_percent$$0000000B  c_w.l(_printf_o.o)
    0x00000346   0x00000006   Code   RO         7959    .ARM.Collect$$_printf_percent$$0000000C  c_w.l(_printf_x.o)
    0x0000034c   0x00000006   Code   RO         7970    .ARM.Collect$$_printf_percent$$0000000D  c_w.l(_printf_lli.o)
    0x00000352   0x00000006   Code   RO         7971    .ARM.Collect$$_printf_percent$$0000000E  c_w.l(_printf_lld.o)
    0x00000358   0x00000006   Code   RO         7972    .ARM.Collect$$_printf_percent$$0000000F  c_w.l(_printf_llu.o)
    0x0000035e   0x00000006   Code   RO         7977    .ARM.Collect$$_printf_percent$$00000010  c_w.l(_printf_llo.o)
    0x00000364   0x00000006   Code   RO         7978    .ARM.Collect$$_printf_percent$$00000011  c_w.l(_printf_llx.o)
    0x0000036a   0x0000000a   Code   RO         7974    .ARM.Collect$$_printf_percent$$00000012  c_w.l(_printf_l.o)
    0x00000374   0x00000006   Code   RO         7956    .ARM.Collect$$_printf_percent$$00000013  c_w.l(_printf_c.o)
    0x0000037a   0x00000006   Code   RO         7957    .ARM.Collect$$_printf_percent$$00000014  c_w.l(_printf_s.o)
    0x00000380   0x00000006   Code   RO         7975    .ARM.Collect$$_printf_percent$$00000015  c_w.l(_printf_lc.o)
    0x00000386   0x00000006   Code   RO         7976    .ARM.Collect$$_printf_percent$$00000016  c_w.l(_printf_ls.o)
    0x0000038c   0x00000004   Code   RO         8050    .ARM.Collect$$_printf_percent$$00000017  c_w.l(_printf_percent_end.o)
    0x00000390   0x00000002   Code   RO         8102    .ARM.Collect$$libinit$$00000000  c_w.l(libinit.o)
    0x00000392   0x00000004   Code   RO         8114    .ARM.Collect$$libinit$$00000001  c_w.l(libinit2.o)
    0x00000396   0x00000000   Code   RO         8117    .ARM.Collect$$libinit$$00000004  c_w.l(libinit2.o)
    0x00000396   0x00000000   Code   RO         8120    .ARM.Collect$$libinit$$0000000A  c_w.l(libinit2.o)
    0x00000396   0x00000000   Code   RO         8122    .ARM.Collect$$libinit$$0000000C  c_w.l(libinit2.o)
    0x00000396   0x00000000   Code   RO         8124    .ARM.Collect$$libinit$$0000000E  c_w.l(libinit2.o)
    0x00000396   0x00000006   Code   RO         8125    .ARM.Collect$$libinit$$0000000F  c_w.l(libinit2.o)
    0x0000039c   0x00000000   Code   RO         8127    .ARM.Collect$$libinit$$00000011  c_w.l(libinit2.o)
    0x0000039c   0x0000000c   Code   RO         8128    .ARM.Collect$$libinit$$00000012  c_w.l(libinit2.o)
    0x000003a8   0x00000000   Code   RO         8129    .ARM.Collect$$libinit$$00000013  c_w.l(libinit2.o)
    0x000003a8   0x00000000   Code   RO         8131    .ARM.Collect$$libinit$$00000015  c_w.l(libinit2.o)
    0x000003a8   0x0000000a   Code   RO         8132    .ARM.Collect$$libinit$$00000016  c_w.l(libinit2.o)
    0x000003b2   0x00000000   Code   RO         8133    .ARM.Collect$$libinit$$00000017  c_w.l(libinit2.o)
    0x000003b2   0x00000000   Code   RO         8135    .ARM.Collect$$libinit$$00000019  c_w.l(libinit2.o)
    0x000003b2   0x00000000   Code   RO         8137    .ARM.Collect$$libinit$$0000001B  c_w.l(libinit2.o)
    0x000003b2   0x00000000   Code   RO         8139    .ARM.Collect$$libinit$$0000001D  c_w.l(libinit2.o)
    0x000003b2   0x00000000   Code   RO         8141    .ARM.Collect$$libinit$$0000001F  c_w.l(libinit2.o)
    0x000003b2   0x00000000   Code   RO         8143    .ARM.Collect$$libinit$$00000021  c_w.l(libinit2.o)
    0x000003b2   0x00000000   Code   RO         8145    .ARM.Collect$$libinit$$00000023  c_w.l(libinit2.o)
    0x000003b2   0x00000000   Code   RO         8147    .ARM.Collect$$libinit$$00000025  c_w.l(libinit2.o)
    0x000003b2   0x00000000   Code   RO         8151    .ARM.Collect$$libinit$$0000002C  c_w.l(libinit2.o)
    0x000003b2   0x00000000   Code   RO         8153    .ARM.Collect$$libinit$$0000002E  c_w.l(libinit2.o)
    0x000003b2   0x00000000   Code   RO         8155    .ARM.Collect$$libinit$$00000030  c_w.l(libinit2.o)
    0x000003b2   0x00000000   Code   RO         8157    .ARM.Collect$$libinit$$00000032  c_w.l(libinit2.o)
    0x000003b2   0x00000002   Code   RO         8158    .ARM.Collect$$libinit$$00000033  c_w.l(libinit2.o)
    0x000003b4   0x00000002   Code   RO         8178    .ARM.Collect$$libshutdown$$00000000  c_w.l(libshutdown.o)
    0x000003b6   0x00000000   Code   RO         8191    .ARM.Collect$$libshutdown$$00000002  c_w.l(libshutdown2.o)
    0x000003b6   0x00000000   Code   RO         8193    .ARM.Collect$$libshutdown$$00000004  c_w.l(libshutdown2.o)
    0x000003b6   0x00000000   Code   RO         8196    .ARM.Collect$$libshutdown$$00000007  c_w.l(libshutdown2.o)
    0x000003b6   0x00000000   Code   RO         8199    .ARM.Collect$$libshutdown$$0000000A  c_w.l(libshutdown2.o)
    0x000003b6   0x00000000   Code   RO         8201    .ARM.Collect$$libshutdown$$0000000C  c_w.l(libshutdown2.o)
    0x000003b6   0x00000000   Code   RO         8204    .ARM.Collect$$libshutdown$$0000000F  c_w.l(libshutdown2.o)
    0x000003b6   0x00000002   Code   RO         8205    .ARM.Collect$$libshutdown$$00000010  c_w.l(libshutdown2.o)
    0x000003b8   0x00000000   Code   RO         7883    .ARM.Collect$$rtentry$$00000000  c_w.l(__rtentry.o)
    0x000003b8   0x00000000   Code   RO         8016    .ARM.Collect$$rtentry$$00000002  c_w.l(__rtentry2.o)
    0x000003b8   0x00000006   Code   RO         8028    .ARM.Collect$$rtentry$$00000004  c_w.l(__rtentry4.o)
    0x000003be   0x00000000   Code   RO         8018    .ARM.Collect$$rtentry$$00000009  c_w.l(__rtentry2.o)
    0x000003be   0x00000004   Code   RO         8019    .ARM.Collect$$rtentry$$0000000A  c_w.l(__rtentry2.o)
    0x000003c2   0x00000000   Code   RO         8021    .ARM.Collect$$rtentry$$0000000C  c_w.l(__rtentry2.o)
    0x000003c2   0x00000008   Code   RO         8022    .ARM.Collect$$rtentry$$0000000D  c_w.l(__rtentry2.o)
    0x000003ca   0x00000002   Code   RO         8107    .ARM.Collect$$rtexit$$00000000  c_w.l(rtexit.o)
    0x000003cc   0x00000000   Code   RO         8160    .ARM.Collect$$rtexit$$00000002  c_w.l(rtexit2.o)
    0x000003cc   0x00000004   Code   RO         8161    .ARM.Collect$$rtexit$$00000003  c_w.l(rtexit2.o)
    0x000003d0   0x00000006   Code   RO         8162    .ARM.Collect$$rtexit$$00000004  c_w.l(rtexit2.o)
    0x000003d6   0x00000002   PAD
    0x000003d8   0x00000114   Code   RO         7720  * .text               startup_tm4c123.o
    0x000004ec   0x00000034   Code   RO         7789    .text               c_w.l(vsnprintf.o)
    0x00000520   0x00000006   Code   RO         7791    .text               c_w.l(heapauxi.o)
    0x00000526   0x0000004e   Code   RO         7888    .text               c_w.l(_printf_pad.o)
    0x00000574   0x00000024   Code   RO         7890    .text               c_w.l(_printf_truncate.o)
    0x00000598   0x00000052   Code   RO         7892    .text               c_w.l(_printf_str.o)
    0x000005ea   0x00000002   PAD
    0x000005ec   0x00000078   Code   RO         7894    .text               c_w.l(_printf_dec.o)
    0x00000664   0x00000028   Code   RO         7896    .text               c_w.l(_printf_charcount.o)
    0x0000068c   0x00000030   Code   RO         7898    .text               c_w.l(_printf_char_common.o)
    0x000006bc   0x0000000a   Code   RO         7900    .text               c_w.l(_sputc.o)
    0x000006c6   0x00000010   Code   RO         7902    .text               c_w.l(_snputc.o)
    0x000006d6   0x00000002   PAD
    0x000006d8   0x000000bc   Code   RO         7904    .text               c_w.l(_printf_wctomb.o)
    0x00000794   0x0000007c   Code   RO         7907    .text               c_w.l(_printf_longlong_dec.o)
    0x00000810   0x00000070   Code   RO         7913    .text               c_w.l(_printf_oct_int_ll.o)
    0x00000880   0x00000094   Code   RO         7933    .text               c_w.l(_printf_hex_int_ll_ptr.o)
    0x00000914   0x00000188   Code   RO         7953    .text               c_w.l(__printf_flags_ss_wp.o)
    0x00000a9c   0x0000008a   Code   RO         8035    .text               c_w.l(lludiv10.o)
    0x00000b26   0x000000b2   Code   RO         8037    .text               c_w.l(_printf_intcommon.o)
    0x00000bd8   0x0000041a   Code   RO         8039    .text               c_w.l(_printf_fp_dec.o)
    0x00000ff2   0x00000002   PAD
    0x00000ff4   0x000002fc   Code   RO         8041    .text               c_w.l(_printf_fp_hex.o)
    0x000012f0   0x0000002c   Code   RO         8046    .text               c_w.l(_printf_char.o)
    0x0000131c   0x0000002c   Code   RO         8048    .text               c_w.l(_printf_wchar.o)
    0x00001348   0x00000040   Code   RO         8051    .text               c_w.l(_wcrtomb.o)
    0x00001388   0x00000008   Code   RO         8053    .text               c_w.l(libspace.o)
    0x00001390   0x0000004a   Code   RO         8056    .text               c_w.l(sys_stackheap_outer.o)
    0x000013da   0x00000002   PAD
    0x000013dc   0x00000010   Code   RO         8058    .text               c_w.l(rt_ctype_table.o)
    0x000013ec   0x00000008   Code   RO         8063    .text               c_w.l(rt_locale_intlibspace.o)
    0x000013f4   0x00000080   Code   RO         8065    .text               c_w.l(_printf_fp_infnan.o)
    0x00001474   0x000000dc   Code   RO         8067    .text               c_w.l(bigflt0.o)
    0x00001550   0x00000012   Code   RO         8095    .text               c_w.l(exit.o)
    0x00001562   0x00000002   PAD
    0x00001564   0x00000080   Code   RO         8112    .text               c_w.l(strcmpv7m.o)
    0x000015e4   0x0000000c   Code   RO         8170    .text               c_w.l(sys_exit.o)
    0x000015f0   0x00000002   Code   RO         8181    .text               c_w.l(use_no_semi.o)
    0x000015f2   0x00000000   Code   RO         8183    .text               c_w.l(indicate_semi.o)
    0x000015f2   0x0000003e   Code   RO         8070    CL$$btod_d2e        c_w.l(btod.o)
    0x00001630   0x00000046   Code   RO         8072    CL$$btod_d2e_denorm_low  c_w.l(btod.o)
    0x00001676   0x00000060   Code   RO         8071    CL$$btod_d2e_norm_op1  c_w.l(btod.o)
    0x000016d6   0x00000338   Code   RO         8080    CL$$btod_div_common  c_w.l(btod.o)
    0x00001a0e   0x000000c6   Code   RO         8077    CL$$btod_e2e        c_w.l(btod.o)
    0x00001ad4   0x00000028   Code   RO         8074    CL$$btod_ediv       c_w.l(btod.o)
    0x00001afc   0x00000028   Code   RO         8073    CL$$btod_emul       c_w.l(btod.o)
    0x00001b24   0x00000244   Code   RO         8079    CL$$btod_mult_common  c_w.l(btod.o)
    0x00001d68   0x00000032   Code   RO         2037    i.GPIODirModeSet    gpio.o
    0x00001d9a   0x00000156   Code   RO         2047    i.GPIOPadConfigSet  gpio.o
    0x00001ef0   0x00000050   Code   RO         2048    i.GPIOPinConfigure  gpio.o
    0x00001f40   0x0000001e   Code   RO         2061    i.GPIOPinTypeI2C    gpio.o
    0x00001f5e   0x0000001e   Code   RO         2062    i.GPIOPinTypeI2CSCL  gpio.o
    0x00001f7c   0x0000001e   Code   RO         2074    i.GPIOPinTypeUART   gpio.o
    0x00001f9a   0x0000001e   Code   RO         2686    i.I2CIntRegister    i2c.o
    0x00001fb8   0x000000a2   Code   RO         6684    i.I2CMCommand       i2cm_drv.o
    0x0000205a   0x00000050   Code   RO         6685    i.I2CMInit          i2cm_drv.o
    0x000020aa   0x000000ec   Code   RO         6686    i.I2CMIntHandler    i2cm_drv.o
    0x00002196   0x00000002   PAD
    0x00002198   0x00000010   Code   RO          103    i.I2CMIntHandler_wrapper  sensorinit.o
    0x000021a8   0x00000034   Code   RO         6827    i.I2CMRead          i2cm_drv.o
    0x000021dc   0x00000080   Code   RO         6691    i.I2CMReadModifyWrite8  i2cm_drv.o
    0x0000225c   0x0000005c   Code   RO         6692    i.I2CMReadModifyWrite8Callback  i2cm_drv.o
    0x000022b8   0x0000005a   Code   RO         6693    i.I2CMStateCallback  i2cm_drv.o
    0x00002312   0x000000e8   Code   RO         6694    i.I2CMStateIdle     i2cm_drv.o
    0x000023fa   0x0000004c   Code   RO         6695    i.I2CMStateReadFinal  i2cm_drv.o
    0x00002446   0x00000038   Code   RO         6696    i.I2CMStateReadFirst  i2cm_drv.o
    0x0000247e   0x00000056   Code   RO         6697    i.I2CMStateReadNext  i2cm_drv.o
    0x000024d4   0x0000002e   Code   RO         6698    i.I2CMStateReadOne  i2cm_drv.o
    0x00002502   0x00000054   Code   RO         6699    i.I2CMStateReadPause  i2cm_drv.o
    0x00002556   0x0000001e   Code   RO         6700    i.I2CMStateReadWait  i2cm_drv.o
    0x00002574   0x00000068   Code   RO         6701    i.I2CMStateWriteFinal  i2cm_drv.o
    0x000025dc   0x00000056   Code   RO         6702    i.I2CMStateWriteNext  i2cm_drv.o
    0x00002632   0x00000084   Code   RO         6703    i.I2CMStateWritePause  i2cm_drv.o
    0x000026b6   0x00000034   Code   RO         6821    i.I2CMWrite         i2cm_drv.o
    0x000026ea   0x0000000a   Code   RO         2696    i.I2CMasterEnable   i2c.o
    0x000026f4   0x0000005c   Code   RO         2699    i.I2CMasterInitExpClk  i2c.o
    0x00002750   0x0000004c   Code   RO            1    i.InitConsole       main.o
    0x0000279c   0x00000068   Code   RO          104    i.InitI2C0          sensorinit.o
    0x00002804   0x00000074   Code   RO         3019    i.IntEnable         interrupt.o
    0x00002878   0x0000003c   Code   RO         3031    i.IntRegister       interrupt.o
    0x000028b4   0x00000010   Code   RO         3032    i.IntTrigger        interrupt.o
    0x000028c4   0x0000006c   Code   RO         7139    i.LSM303DLHCAccelDataAccelGetFloat  lsm303dlhc_accel.o
    0x00002930   0x0000004c   Code   RO         7141    i.LSM303DLHCAccelDataRead  lsm303dlhc_accel.o
    0x0000297c   0x0000004c   Code   RO         7142    i.LSM303DLHCAccelInit  lsm303dlhc_accel.o
    0x000029c8   0x00000050   Code   RO         7144    i.LSM303DLHCAccelReadModifyWrite  lsm303dlhc_accel.o
    0x00002a18   0x0000007c   Code   RO         7146    i.LSM303DLHCCallback  lsm303dlhc_accel.o
    0x00002a94   0x0000016c   Code   RO         4170    i.SysCtlClockGet    sysctl.o
    0x00002c00   0x00000034   Code   RO         4201    i.SysCtlPeripheralEnable  sysctl.o
    0x00002c34   0x00000070   Code   RO         4206    i.SysCtlPeripheralReset  sysctl.o
    0x00002ca4   0x00000098   Code   RO         7728    i.SystemInit        system_tm4c123.o
    0x00002d3c   0x00000006   Code   RO         4885    i.UARTClockSourceSet  uart.o
    0x00002d42   0x00000002   PAD
    0x00002d44   0x0000006c   Code   RO          137    i.UARTStdioConfig   uartstdio.o
    0x00002db0   0x00000044   Code   RO          142    i.UARTprintf        uartstdio.o
    0x00002df4   0x00000040   Code   RO          143    i.UARTwrite         uartstdio.o
    0x00002e34   0x0000004c   Code   RO         2734    i._I2CIntNumberGet  i2c.o
    0x00002e80   0x00000030   Code   RO         8105    i.__ARM_fpclassify  m_wm.l(fpclassify.o)
    0x00002eb0   0x0000000e   Code   RO         7946    i._is_digit         c_w.l(__printf_wp.o)
    0x00002ebe   0x00000002   PAD
    0x00002ec0   0x00000038   Code   RO          105    i.accelerometerCallback  sensorinit.o
    0x00002ef8   0x0000000a   Code   RO           76    i.cycles            delays.o
    0x00002f02   0x00000002   PAD
    0x00002f04   0x0000018c   Code   RO          106    i.initSensors       sensorinit.o
    0x00003090   0x0000000e   Code   RO            2    i.main              main.o
    0x0000309e   0x00000002   PAD
    0x000030a0   0x0000002c   Code   RO         8093    locale$$code        c_w.l(lc_numeric_c.o)
    0x000030cc   0x0000002c   Code   RO         8110    locale$$code        c_w.l(lc_ctype_c.o)
    0x000030f8   0x0000000c   Code   RO         7981    x$fpl$dretinf       fz_wm.l(dretinf.o)
    0x00003104   0x00000056   Code   RO         7809    x$fpl$f2d           fz_wm.l(f2d.o)
    0x0000315a   0x0000008c   Code   RO         7983    x$fpl$fnaninf       fz_wm.l(fnaninf.o)
    0x000031e6   0x0000000a   Code   RO         8168    x$fpl$fpinit        fz_wm.l(fpinit.o)
    0x000031f0   0x00000004   Code   RO         7987    x$fpl$printf1       fz_wm.l(printf1.o)
    0x000031f4   0x00000004   Code   RO         7989    x$fpl$printf2       fz_wm.l(printf2.o)
    0x000031f8   0x00000000   Code   RO         7995    x$fpl$usenofp       fz_wm.l(usenofp.o)
    0x000031f8   0x00000018   Data   RO          145    .constdata          uartstdio.o
    0x00003210   0x00000210   Data   RO         2082    .constdata          gpio.o
    0x00003420   0x00000080   Data   RO         2735    .constdata          i2c.o
    0x000034a0   0x0000010c   Data   RO         3035    .constdata          interrupt.o
    0x000035ac   0x000001c4   Data   RO         4224    .constdata          sysctl.o
    0x00003770   0x00000050   Data   RO         7147    .constdata          lsm303dlhc_accel.o
    0x000037c0   0x00000008   Data   RO         7905    .constdata          c_w.l(_printf_wctomb.o)
    0x000037c8   0x00000028   Data   RO         7934    .constdata          c_w.l(_printf_hex_int_ll_ptr.o)
    0x000037f0   0x00000011   Data   RO         7954    .constdata          c_w.l(__printf_flags_ss_wp.o)
    0x00003801   0x00000026   Data   RO         8042    .constdata          c_w.l(_printf_fp_hex.o)
    0x00003827   0x00000001   PAD
    0x00003828   0x00000094   Data   RO         8068    .constdata          c_w.l(bigflt0.o)
    0x000038bc   0x00000020   Data   RO         8236    Region$$Table       anon$$obj.o
    0x000038dc   0x0000001c   Data   RO         8092    locale$$data        c_w.l(lc_numeric_c.o)
    0x000038f8   0x00000110   Data   RO         8109    locale$$data        c_w.l(lc_ctype_c.o)


    Execution Region ER_RW (Base: 0x20000000, Size: 0x0000066c, Max: 0xffffffff, ABSOLUTE, COMPRESSED[0x00000010])

    Base Addr    Size         Type   Attr      Idx    E Section Name        Object

    0x20000000   0x00000008   Data   RW          108    .data               sensorinit.o
    0x20000008   0x00000005   Data   RW          146    .data               uartstdio.o
    0x2000000d   0x000003f3   PAD
    0x20000400   0x0000026c   Data   RW         3036    vtable              interrupt.o


    Execution Region ER_ZI (Base: 0x2000066c, Size: 0x000004b4, Max: 0xffffffff, ABSOLUTE)

    Base Addr    Size         Type   Attr      Idx    E Section Name        Object

    0x2000066c   0x00000150   Zero   RW          107    .bss                sensorinit.o
    0x200007bc   0x00000100   Zero   RW          144    .bss                uartstdio.o
    0x200008bc   0x00000060   Zero   RW         8054    .bss                c_w.l(libspace.o)
    0x2000091c   0x00000004   PAD
    0x20000920   0x00000000   Zero   RW         7718    HEAP                startup_tm4c123.o
    0x20000920   0x00000200   Zero   RW         7717    STACK               startup_tm4c123.o


==============================================================================

Image component sizes


      Code (inc. data)   RO Data    RW Data    ZI Data      Debug   Object Name

         0          0          0          0          0       2742   ak8963.o
         0          0          0          0          0         32   cpu.o
        10          0          0          0          0        461   delays.o
       562         10        528          0          0       4722   gpio.o
       208         34        128          0          0       3389   i2c.o
      1824         20          0          0          0      15628   i2cm_drv.o
       192         22        268        620          0       2631   interrupt.o
       464         30         80          0          0       5532   lsm303dlhc_accel.o
        90         16          0          0          0       8763   main.o
       572        132          0          8        336       2673   sensorinit.o
       276         24        620          0        512       5452   startup_tm4c123.o
       528         52        452          0          0       3450   sysctl.o
       152         40          0          0          0        597   system_tm4c123.o
         6          0          0          0          0        537   uart.o
       240         24         24          5        256       4264   uartstdio.o

    ----------------------------------------------------------------------
      5132        404       2132       1644       1104      60873   Object Totals
         0          0         32          0          0          0   (incl. Generated)
         8          0          0       1011          0          0   (incl. Padding)

    ----------------------------------------------------------------------

      Code (inc. data)   RO Data    RW Data    ZI Data      Debug   Library Member Name

        58          0          0          0          0          0   __dczerorl.o
         8          0          0          0          0         68   __main.o
       392          4         17          0          0         92   __printf_flags_ss_wp.o
        14          0          0          0          0         68   __printf_wp.o
         0          0          0          0          0          0   __rtentry.o
        12          0          0          0          0          0   __rtentry2.o
         6          0          0          0          0          0   __rtentry4.o
        52          8          0          0          0          0   __scatter.o
        28          0          0          0          0          0   __scatter_zi.o
         6          0          0          0          0          0   _printf_a.o
         6          0          0          0          0          0   _printf_c.o
        44          0          0          0          0        108   _printf_char.o
        48          6          0          0          0         96   _printf_char_common.o
        40          0          0          0          0         68   _printf_charcount.o
         6          0          0          0          0          0   _printf_d.o
       120         16          0          0          0         92   _printf_dec.o
         6          0          0          0          0          0   _printf_e.o
         6          0          0          0          0          0   _printf_f.o
      1050          0          0          0          0        216   _printf_fp_dec.o
       764         10         38          0          0        100   _printf_fp_hex.o
       128         16          0          0          0         84   _printf_fp_infnan.o
         6          0          0          0          0          0   _printf_g.o
       148          4         40          0          0        160   _printf_hex_int_ll_ptr.o
         6          0          0          0          0          0   _printf_i.o
       178          0          0          0          0         88   _printf_intcommon.o
        10          0          0          0          0          0   _printf_l.o
         6          0          0          0          0          0   _printf_lc.o
        10          0          0          0          0          0   _printf_ll.o
         6          0          0          0          0          0   _printf_lld.o
         6          0          0          0          0          0   _printf_lli.o
         6          0          0          0          0          0   _printf_llo.o
         6          0          0          0          0          0   _printf_llu.o
         6          0          0          0          0          0   _printf_llx.o
       124         16          0          0          0         92   _printf_longlong_dec.o
         6          0          0          0          0          0   _printf_ls.o
         6          0          0          0          0          0   _printf_n.o
         6          0          0          0          0          0   _printf_o.o
       112          8          0          0          0        124   _printf_oct_int_ll.o
         6          0          0          0          0          0   _printf_p.o
        78          0          0          0          0        108   _printf_pad.o
         0          0          0          0          0          0   _printf_percent.o
         4          0          0          0          0          0   _printf_percent_end.o
         6          0          0          0          0          0   _printf_s.o
        82          0          0          0          0         80   _printf_str.o
        36          0          0          0          0         84   _printf_truncate.o
         6          0          0          0          0          0   _printf_u.o
        44          0          0          0          0        108   _printf_wchar.o
       188          6          8          0          0         92   _printf_wctomb.o
         6          0          0          0          0          0   _printf_x.o
        16          0          0          0          0         68   _snputc.o
        10          0          0          0          0         68   _sputc.o
        64          0          0          0          0         92   _wcrtomb.o
       220          4        148          0          0         96   bigflt0.o
      1910        128          0          0          0        672   btod.o
        18          0          0          0          0         80   exit.o
         6          0          0          0          0        152   heapauxi.o
         0          0          0          0          0          0   indicate_semi.o
        44         10        272          0          0         76   lc_ctype_c.o
        44         10         28          0          0         76   lc_numeric_c.o
         2          0          0          0          0          0   libinit.o
        34          0          0          0          0          0   libinit2.o
         2          0          0          0          0          0   libshutdown.o
         2          0          0          0          0          0   libshutdown2.o
         8          4          0          0         96         68   libspace.o
       138          0          0          0          0         80   lludiv10.o
        16          4          0          0          0         76   rt_ctype_table.o
         8          4          0          0          0         68   rt_locale_intlibspace.o
         2          0          0          0          0          0   rtexit.o
        10          0          0          0          0          0   rtexit2.o
       128          0          0          0          0         68   strcmpv7m.o
        12          4          0          0          0         68   sys_exit.o
        74          0          0          0          0         80   sys_stackheap_outer.o
         2          0          0          0          0         68   use_no_semi.o
        52          4          0          0          0         80   vsnprintf.o
        12          0          0          0          0        116   dretinf.o
        86          4          0          0          0        132   f2d.o
       140          4          0          0          0        132   fnaninf.o
        10          0          0          0          0        116   fpinit.o
         4          0          0          0          0        116   printf1.o
         4          0          0          0          0        116   printf2.o
         0          0          0          0          0          0   usenofp.o
        48          0          0          0          0        124   fpclassify.o

    ----------------------------------------------------------------------
      7040        274        552          0        100       4816   Library Totals
        16          0          1          0          4          0   (incl. Padding)

    ----------------------------------------------------------------------

      Code (inc. data)   RO Data    RW Data    ZI Data      Debug   Library Name

      6720        266        551          0         96       3964   c_w.l
       256          8          0          0          0        728   fz_wm.l
        48          0          0          0          0        124   m_wm.l

    ----------------------------------------------------------------------
      7040        274        552          0        100       4816   Library Totals

    ----------------------------------------------------------------------

==============================================================================


      Code (inc. data)   RO Data    RW Data    ZI Data      Debug   

     12172        678       2684       1644       1204      58357   Grand Totals
     12172        678       2684         16       1204      58357   ELF Image Totals (compressed)
     12172        678       2684         16          0          0   ROM Totals

==============================================================================

    Total RO  Size (Code + RO Data)                14856 (  14.51kB)
    Total RW  Size (RW Data + ZI Data)              2848 (   2.78kB)
    Total ROM Size (Code + RO Data + RW Data)      14872 (  14.52kB)

==============================================================================

